Archive member included because of file (symbol)

/Users/dciliske/nndk/lib/MOD5441X.a(bsp.o)
                              ./stepper.o (SetIntc)
/Users/dciliske/nndk/lib/MOD5441X.a(flash.o)
                              /Users/dciliske/nndk/lib/MOD5441X.a(bsp.o) (FlashErase)
/Users/dciliske/nndk/lib/MOD5441X.a(pins.o)
                              ./main.o (_ZN5PinIO3setEh)
/Users/dciliske/nndk/lib/NetBurner.a(ucosmcfa.o)
                              /Users/dciliske/nndk/lib/MOD5441X.a(bsp.o) (OSCtxSw)
/Users/dciliske/nndk/lib/NetBurner.a(software_init.o)
                              /Applications/NetBurner/gcc-m68k/bin/../lib/gcc/m68k-elf/4.2.1/../../../../m68k-elf/lib/m5206e/nb-crt0.o (software_init_hook)
/Users/dciliske/nndk/lib/NetBurner.a(ucos.o)
                              ./main.o (TimeTick)
/Users/dciliske/nndk/lib/NetBurner.a(debugtrap.o)
                              /Users/dciliske/nndk/lib/MOD5441X.a(bsp.o) (SetAddressReadRangeTrap)
/Users/dciliske/nndk/lib/NetBurner.a(ucosmain.o)
                              /Users/dciliske/nndk/lib/NetBurner.a(ucos.o) (OSTCBTbl)
/Users/dciliske/nndk/lib/NetBurner.a(fileio.o)
                              /Users/dciliske/nndk/lib/NetBurner.a(ucosmain.o) (ioctl)
/Users/dciliske/nndk/lib/NetBurner.a(main.o)
                              /Applications/NetBurner/gcc-m68k/bin/../lib/gcc/m68k-elf/4.2.1/../../../../m68k-elf/lib/m5206e/nb-crt0.o (main)
/Users/dciliske/nndk/lib/NetBurner.a(tcp.o)
                              /Users/dciliske/nndk/lib/NetBurner.a(fileio.o) (_Socket_Private_read)
/Users/dciliske/nndk/lib/NetBurner.a(iosys.o)
                              /Users/dciliske/nndk/lib/NetBurner.a(tcp.o) (FD_ZERO)
/Users/dciliske/nndk/lib/NetBurner.a(netinterface.o)
                              /Users/dciliske/nndk/lib/NetBurner.a(tcp.o) (_Z17GetFirstInterfacev)
/Users/dciliske/nndk/lib/NetBurner.a(smarttrap.o)
                              /Users/dciliske/nndk/lib/MOD5441X.a(bsp.o) (smart_trap_asm)
/Users/dciliske/nndk/lib/NetBurner.a(device.o)
                              /Users/dciliske/nndk/lib/NetBurner.a(main.o) (DeviceInitializeSem)
/Users/dciliske/nndk/lib/NetBurner.a(release_tag.o)
                              ./main.o (GetReleaseTag)
/Users/dciliske/nndk/lib/NetBurner.a(release_tagdata.o)
                              /Users/dciliske/nndk/lib/NetBurner.a(release_tag.o) (rtag_len)
/Users/dciliske/nndk/lib/NetBurner.a(init.o)
                              ./main.o (_Z4initv)
/Users/dciliske/nndk/lib/NetBurner.a(nbiprintf.o)
                              ./main.o (iprintf)
/Users/dciliske/nndk/lib/NetBurner.a(ucosmcfc.o)
                              /Users/dciliske/nndk/lib/NetBurner.a(ucos.o) (OSTaskCreatewName)
/Users/dciliske/nndk/lib/NetBurner.a(system.o)
                              /Users/dciliske/nndk/lib/NetBurner.a(netinterface.o) (RawGetConfig)
/Users/dciliske/nndk/lib/NetBurner.a(utils.o)
                              /Users/dciliske/nndk/lib/NetBurner.a(system.o) (AsciiToIp)
/Users/dciliske/nndk/lib/NetBurner.a(ip.o)
                              /Users/dciliske/nndk/lib/NetBurner.a(tcp.o) (GetSum)
/Users/dciliske/nndk/lib/NetBurner.a(buffers.o)
                              /Users/dciliske/nndk/lib/NetBurner.a(tcp.o) (IncUsageCount)
/Users/dciliske/nndk/lib/NetBurner.a(arp.o)
                              /Users/dciliske/nndk/lib/NetBurner.a(ip.o) (wArpLifetime)
/Users/dciliske/nndk/lib/NetBurner.a(udp.o)
                              /Users/dciliske/nndk/lib/NetBurner.a(ip.o) (_Z11process_udpP11pool_bufferP5IPPKTt)
/Users/dciliske/nndk/lib/NetBurner.a(autoip.o)
                              /Users/dciliske/nndk/lib/NetBurner.a(arp.o) (_ZN12AutoIPClient16addressCollisionEv)
/Users/dciliske/nndk/lib/NetBurner.a(dhcpc.o)
                              /Users/dciliske/nndk/lib/NetBurner.a(init.o) (_Z25GetDHCPAddressIfNecessaryib)
/Users/dciliske/nndk/lib/NetBurner.a(defappname.o)
                              /Users/dciliske/nndk/lib/NetBurner.a(udp.o) (AppName)
/Users/dciliske/nndk/lib/NetBurner.a(taskmon.o)
                              /Users/dciliske/nndk/lib/NetBurner.a(init.o) (_Z17EnableTaskMonitorv)
/Users/dciliske/nndk/lib/NetBurner.a(autoupdate.o)
                              /Users/dciliske/nndk/lib/NetBurner.a(init.o) (EnableAutoUpdate)
/Users/dciliske/nndk/lib/NetBurner.a(nbsiprintf.o)
                              /Users/dciliske/nndk/lib/NetBurner.a(utils.o) (sniprintf)
/Users/dciliske/nndk/lib/NetBurner.a(new_ops.o)
                              /Users/dciliske/nndk/lib/NetBurner.a(autoip.o) (_Znwm)
/Users/dciliske/nndk/lib/MOD5441X.a(localio.o)
                              /Users/dciliske/nndk/lib/NetBurner.a(fileio.o) (LocalInByte)
/Users/dciliske/nndk/lib/MOD5441X.a(serial.o)
                              /Users/dciliske/nndk/lib/NetBurner.a(fileio.o) (SerialClose)
/Users/dciliske/nndk/lib/MOD5441X.a(ethernet.o)
                              /Users/dciliske/nndk/lib/NetBurner.a(netinterface.o) (_Z20AddEthernetInterfacev)
/Users/dciliske/nndk/lib/MOD5441X.a(etherprint.o)
                              /Users/dciliske/nndk/lib/MOD5441X.a(ethernet.o) (_ZN12EthernetVars9EtherLinkEv)
/Users/dciliske/nndk/lib/MOD5441X.a(emulticast.o)
                              /Users/dciliske/nndk/lib/MOD5441X.a(ethernet.o) (_ZN12EthernetVars18EthEnableMulticastE6MACADR)
/Users/dciliske/nndk/lib/MOD5441X.a(ether2nd.o)
                              /Users/dciliske/nndk/lib/MOD5441X.a(ethernet.o) (_Z14Add2ndEthernetv)
/Users/dciliske/nndk/lib/MOD5441X.a(etherswitch.o)
                              /Users/dciliske/nndk/lib/MOD5441X.a(ethernet.o) (_Z15EtherSwitchInitv)
/Users/dciliske/nndk/lib/MOD5441X.a(weak_autoenet_var.o)
                              /Users/dciliske/nndk/lib/MOD5441X.a(ethernet.o) (bAutomatic2ndEther)
/Users/dciliske/nndk/lib/NetBurner.a(extraio.o)
                              /Users/dciliske/nndk/lib/MOD5441X.a(serial.o) (GetExtraFD)
/Users/dciliske/nndk/lib/NetBurner.a(netrx.o)
                              /Users/dciliske/nndk/lib/MOD5441X.a(ethernet.o) (_Z7NetDoRXP11pool_bufferti)
/Users/dciliske/nndk/lib/NetBurner.a(multiconfig.o)
                              /Users/dciliske/nndk/lib/MOD5441X.a(ether2nd.o) (_Z16SetupIFConfigRecR15_InterfaceBlock)
/Applications/NetBurner/gcc-m68k/bin/../lib/gcc/m68k-elf/4.2.1/m5206e/libgcc.a(_double.o)
                              /Users/dciliske/nndk/lib/NetBurner.a(dhcpc.o) (__adddf3)
/Applications/NetBurner/gcc-m68k/bin/../lib/gcc/m68k-elf/4.2.1/m5206e/libgcc.a(_floatex.o)
                              /Applications/NetBurner/gcc-m68k/bin/../lib/gcc/m68k-elf/4.2.1/m5206e/libgcc.a(_double.o) (_fpCCR)
/Applications/NetBurner/gcc-m68k/bin/../lib/gcc/m68k-elf/4.2.1/m5206e/libgcc.a(_fixunsdfsi.o)
                              /Users/dciliske/nndk/lib/NetBurner.a(dhcpc.o) (__fixunsdfsi)
/Applications/NetBurner/gcc-m68k/bin/../lib/gcc/m68k-elf/4.2.1/m5206e/libgcc.a(_udivdi3.o)
                              /Users/dciliske/nndk/lib/NetBurner.a(nbiprintf.o) (__udivdi3)
/Applications/NetBurner/gcc-m68k/bin/../lib/gcc/m68k-elf/4.2.1/m5206e/libgcc.a(_umoddi3.o)
                              /Users/dciliske/nndk/lib/NetBurner.a(nbiprintf.o) (__umoddi3)
/Applications/NetBurner/gcc-m68k/bin/../lib/gcc/m68k-elf/4.2.1/m5206e/libgcc.a(fpgnulib.o)
                              /Users/dciliske/nndk/lib/NetBurner.a(dhcpc.o) (__floatunsidf)
/Applications/NetBurner/gcc-m68k/bin/../lib/gcc/m68k-elf/4.2.1/m5206e/libgcc.a(_gedf2.o)
                              /Applications/NetBurner/gcc-m68k/bin/../lib/gcc/m68k-elf/4.2.1/m5206e/libgcc.a(_fixunsdfsi.o) (__gedf2)
/Applications/NetBurner/gcc-m68k/bin/../lib/gcc/m68k-elf/4.2.1/m5206e/libgcc.a(_clz.o)
                              /Applications/NetBurner/gcc-m68k/bin/../lib/gcc/m68k-elf/4.2.1/m5206e/libgcc.a(_udivdi3.o) (__clz_tab)
/Applications/NetBurner/gcc-m68k/bin/../lib/gcc/m68k-elf/4.2.1/../../../../m68k-elf/lib/m5206e/libc.a(lib_a-cxa_atexit.o)
                              /Users/dciliske/nndk/lib/NetBurner.a(tcp.o) (__cxa_atexit)
/Applications/NetBurner/gcc-m68k/bin/../lib/gcc/m68k-elf/4.2.1/../../../../m68k-elf/lib/m5206e/libc.a(lib_a-errno.o)
                              /Users/dciliske/nndk/lib/NetBurner.a(fileio.o) (__errno)
/Applications/NetBurner/gcc-m68k/bin/../lib/gcc/m68k-elf/4.2.1/../../../../m68k-elf/lib/m5206e/libc.a(lib_a-fiprintf.o)
                              /Users/dciliske/nndk/lib/NetBurner.a(utils.o) (fiprintf)
/Applications/NetBurner/gcc-m68k/bin/../lib/gcc/m68k-elf/4.2.1/../../../../m68k-elf/lib/m5206e/libc.a(lib_a-impure.o)
                              /Users/dciliske/nndk/lib/NetBurner.a(ucosmain.o) (_impure_ptr)
/Applications/NetBurner/gcc-m68k/bin/../lib/gcc/m68k-elf/4.2.1/../../../../m68k-elf/lib/m5206e/libc.a(lib_a-malloc.o)
                              /Users/dciliske/nndk/lib/NetBurner.a(utils.o) (free)
/Applications/NetBurner/gcc-m68k/bin/../lib/gcc/m68k-elf/4.2.1/../../../../m68k-elf/lib/m5206e/libc.a(lib_a-mallocr.o)
                              /Applications/NetBurner/gcc-m68k/bin/../lib/gcc/m68k-elf/4.2.1/../../../../m68k-elf/lib/m5206e/libc.a(lib_a-malloc.o) (_malloc_r)
/Applications/NetBurner/gcc-m68k/bin/../lib/gcc/m68k-elf/4.2.1/../../../../m68k-elf/lib/m5206e/libc.a(lib_a-puts.o)
                              /Users/dciliske/nndk/lib/NetBurner.a(utils.o) (puts)
/Applications/NetBurner/gcc-m68k/bin/../lib/gcc/m68k-elf/4.2.1/../../../../m68k-elf/lib/m5206e/libc.a(lib_a-rand.o)
                              /Users/dciliske/nndk/lib/NetBurner.a(autoip.o) (srand)
/Applications/NetBurner/gcc-m68k/bin/../lib/gcc/m68k-elf/4.2.1/../../../../m68k-elf/lib/m5206e/libc.a(lib_a-rget.o)
                              /Users/dciliske/nndk/lib/NetBurner.a(system.o) (__srget_r)
/Applications/NetBurner/gcc-m68k/bin/../lib/gcc/m68k-elf/4.2.1/../../../../m68k-elf/lib/m5206e/libc.a(lib_a-setvbuf.o)
                              /Users/dciliske/nndk/lib/NetBurner.a(ucosmain.o) (setvbuf)
/Applications/NetBurner/gcc-m68k/bin/../lib/gcc/m68k-elf/4.2.1/../../../../m68k-elf/lib/m5206e/libc.a(lib_a-strlen.o)
                              /Users/dciliske/nndk/lib/NetBurner.a(iosys.o) (strlen)
/Applications/NetBurner/gcc-m68k/bin/../lib/gcc/m68k-elf/4.2.1/../../../../m68k-elf/lib/m5206e/libc.a(lib_a-vfiprintf.o)
                              /Applications/NetBurner/gcc-m68k/bin/../lib/gcc/m68k-elf/4.2.1/../../../../m68k-elf/lib/m5206e/libc.a(lib_a-fiprintf.o) (vfiprintf)
/Applications/NetBurner/gcc-m68k/bin/../lib/gcc/m68k-elf/4.2.1/../../../../m68k-elf/lib/m5206e/libc.a(lib_a-wbuf.o)
                              /Users/dciliske/nndk/lib/NetBurner.a(system.o) (__swbuf_r)
/Applications/NetBurner/gcc-m68k/bin/../lib/gcc/m68k-elf/4.2.1/../../../../m68k-elf/lib/m5206e/libc.a(lib_a-wcrtomb.o)
                              /Applications/NetBurner/gcc-m68k/bin/../lib/gcc/m68k-elf/4.2.1/../../../../m68k-elf/lib/m5206e/libc.a(lib_a-vfiprintf.o) (_wcrtomb_r)
/Applications/NetBurner/gcc-m68k/bin/../lib/gcc/m68k-elf/4.2.1/../../../../m68k-elf/lib/m5206e/libc.a(lib_a-wcsrtombs.o)
                              /Applications/NetBurner/gcc-m68k/bin/../lib/gcc/m68k-elf/4.2.1/../../../../m68k-elf/lib/m5206e/libc.a(lib_a-vfiprintf.o) (_wcsrtombs_r)
/Applications/NetBurner/gcc-m68k/bin/../lib/gcc/m68k-elf/4.2.1/../../../../m68k-elf/lib/m5206e/libc.a(lib_a-wctomb_r.o)
                              /Applications/NetBurner/gcc-m68k/bin/../lib/gcc/m68k-elf/4.2.1/../../../../m68k-elf/lib/m5206e/libc.a(lib_a-wcrtomb.o) (_wctomb_r)
/Applications/NetBurner/gcc-m68k/bin/../lib/gcc/m68k-elf/4.2.1/../../../../m68k-elf/lib/m5206e/libc.a(lib_a-wsetup.o)
                              /Applications/NetBurner/gcc-m68k/bin/../lib/gcc/m68k-elf/4.2.1/../../../../m68k-elf/lib/m5206e/libc.a(lib_a-vfiprintf.o) (__swsetup)
/Applications/NetBurner/gcc-m68k/bin/../lib/gcc/m68k-elf/4.2.1/../../../../m68k-elf/lib/m5206e/libc.a(lib_a-__atexit.o)
                              /Applications/NetBurner/gcc-m68k/bin/../lib/gcc/m68k-elf/4.2.1/../../../../m68k-elf/lib/m5206e/libc.a(lib_a-cxa_atexit.o) (__register_exitproc)
/Applications/NetBurner/gcc-m68k/bin/../lib/gcc/m68k-elf/4.2.1/../../../../m68k-elf/lib/m5206e/libc.a(lib_a-fflush.o)
                              /Applications/NetBurner/gcc-m68k/bin/../lib/gcc/m68k-elf/4.2.1/../../../../m68k-elf/lib/m5206e/libc.a(lib_a-setvbuf.o) (fflush)
/Applications/NetBurner/gcc-m68k/bin/../lib/gcc/m68k-elf/4.2.1/../../../../m68k-elf/lib/m5206e/libc.a(lib_a-findfp.o)
                              /Applications/NetBurner/gcc-m68k/bin/../lib/gcc/m68k-elf/4.2.1/../../../../m68k-elf/lib/m5206e/libc.a(lib_a-setvbuf.o) (__sinit)
/Applications/NetBurner/gcc-m68k/bin/../lib/gcc/m68k-elf/4.2.1/../../../../m68k-elf/lib/m5206e/libc.a(lib_a-freer.o)
                              /Applications/NetBurner/gcc-m68k/bin/../lib/gcc/m68k-elf/4.2.1/../../../../m68k-elf/lib/m5206e/libc.a(lib_a-malloc.o) (_free_r)
/Applications/NetBurner/gcc-m68k/bin/../lib/gcc/m68k-elf/4.2.1/../../../../m68k-elf/lib/m5206e/libc.a(lib_a-fvwrite.o)
                              /Applications/NetBurner/gcc-m68k/bin/../lib/gcc/m68k-elf/4.2.1/../../../../m68k-elf/lib/m5206e/libc.a(lib_a-puts.o) (__sfvwrite_r)
/Applications/NetBurner/gcc-m68k/bin/../lib/gcc/m68k-elf/4.2.1/../../../../m68k-elf/lib/m5206e/libc.a(lib_a-fwalk.o)
                              /Applications/NetBurner/gcc-m68k/bin/../lib/gcc/m68k-elf/4.2.1/../../../../m68k-elf/lib/m5206e/libc.a(lib_a-fflush.o) (_fwalk)
/Applications/NetBurner/gcc-m68k/bin/../lib/gcc/m68k-elf/4.2.1/../../../../m68k-elf/lib/m5206e/libc.a(lib_a-locale.o)
                              /Applications/NetBurner/gcc-m68k/bin/../lib/gcc/m68k-elf/4.2.1/../../../../m68k-elf/lib/m5206e/libc.a(lib_a-wctomb_r.o) (__lc_ctype)
/Applications/NetBurner/gcc-m68k/bin/../lib/gcc/m68k-elf/4.2.1/../../../../m68k-elf/lib/m5206e/libc.a(lib_a-makebuf.o)
                              /Applications/NetBurner/gcc-m68k/bin/../lib/gcc/m68k-elf/4.2.1/../../../../m68k-elf/lib/m5206e/libc.a(lib_a-wsetup.o) (__smakebuf)
/Applications/NetBurner/gcc-m68k/bin/../lib/gcc/m68k-elf/4.2.1/../../../../m68k-elf/lib/m5206e/libc.a(lib_a-memchr.o)
                              /Applications/NetBurner/gcc-m68k/bin/../lib/gcc/m68k-elf/4.2.1/../../../../m68k-elf/lib/m5206e/libc.a(lib_a-vfiprintf.o) (memchr)
/Applications/NetBurner/gcc-m68k/bin/../lib/gcc/m68k-elf/4.2.1/../../../../m68k-elf/lib/m5206e/libc.a(lib_a-memmove.o)
                              /Applications/NetBurner/gcc-m68k/bin/../lib/gcc/m68k-elf/4.2.1/../../../../m68k-elf/lib/m5206e/libc.a(lib_a-fvwrite.o) (memmove)
/Applications/NetBurner/gcc-m68k/bin/../lib/gcc/m68k-elf/4.2.1/../../../../m68k-elf/lib/m5206e/libc.a(lib_a-reallocr.o)
                              /Applications/NetBurner/gcc-m68k/bin/../lib/gcc/m68k-elf/4.2.1/../../../../m68k-elf/lib/m5206e/libc.a(lib_a-fvwrite.o) (_realloc_r)
/Applications/NetBurner/gcc-m68k/bin/../lib/gcc/m68k-elf/4.2.1/../../../../m68k-elf/lib/m5206e/libc.a(lib_a-refill.o)
                              /Applications/NetBurner/gcc-m68k/bin/../lib/gcc/m68k-elf/4.2.1/../../../../m68k-elf/lib/m5206e/libc.a(lib_a-rget.o) (__srefill_r)
/Applications/NetBurner/gcc-m68k/bin/../lib/gcc/m68k-elf/4.2.1/../../../../m68k-elf/lib/m5206e/libc.a(lib_a-stdio.o)
                              /Applications/NetBurner/gcc-m68k/bin/../lib/gcc/m68k-elf/4.2.1/../../../../m68k-elf/lib/m5206e/libc.a(lib_a-findfp.o) (__sclose)
/Applications/NetBurner/gcc-m68k/bin/../lib/gcc/m68k-elf/4.2.1/../../../../m68k-elf/lib/m5206e/libc.a(lib_a-strcmp.o)
                              /Applications/NetBurner/gcc-m68k/bin/../lib/gcc/m68k-elf/4.2.1/../../../../m68k-elf/lib/m5206e/libc.a(lib_a-wctomb_r.o) (strcmp)
/Applications/NetBurner/gcc-m68k/bin/../lib/gcc/m68k-elf/4.2.1/../../../../m68k-elf/lib/m5206e/libc.a(lib_a-writer.o)
                              /Applications/NetBurner/gcc-m68k/bin/../lib/gcc/m68k-elf/4.2.1/../../../../m68k-elf/lib/m5206e/libc.a(lib_a-stdio.o) (_write_r)
/Applications/NetBurner/gcc-m68k/bin/../lib/gcc/m68k-elf/4.2.1/../../../../m68k-elf/lib/m5206e/libc.a(lib_a-closer.o)
                              /Applications/NetBurner/gcc-m68k/bin/../lib/gcc/m68k-elf/4.2.1/../../../../m68k-elf/lib/m5206e/libc.a(lib_a-stdio.o) (_close_r)
/Applications/NetBurner/gcc-m68k/bin/../lib/gcc/m68k-elf/4.2.1/../../../../m68k-elf/lib/m5206e/libc.a(lib_a-fclose.o)
                              /Applications/NetBurner/gcc-m68k/bin/../lib/gcc/m68k-elf/4.2.1/../../../../m68k-elf/lib/m5206e/libc.a(lib_a-findfp.o) (fclose)
/Applications/NetBurner/gcc-m68k/bin/../lib/gcc/m68k-elf/4.2.1/../../../../m68k-elf/lib/m5206e/libc.a(lib_a-fstatr.o)
                              /Applications/NetBurner/gcc-m68k/bin/../lib/gcc/m68k-elf/4.2.1/../../../../m68k-elf/lib/m5206e/libc.a(lib_a-makebuf.o) (_fstat_r)
/Applications/NetBurner/gcc-m68k/bin/../lib/gcc/m68k-elf/4.2.1/../../../../m68k-elf/lib/m5206e/libc.a(lib_a-lseekr.o)
                              /Applications/NetBurner/gcc-m68k/bin/../lib/gcc/m68k-elf/4.2.1/../../../../m68k-elf/lib/m5206e/libc.a(lib_a-stdio.o) (_lseek_r)
/Applications/NetBurner/gcc-m68k/bin/../lib/gcc/m68k-elf/4.2.1/../../../../m68k-elf/lib/m5206e/libc.a(lib_a-readr.o)
                              /Applications/NetBurner/gcc-m68k/bin/../lib/gcc/m68k-elf/4.2.1/../../../../m68k-elf/lib/m5206e/libc.a(lib_a-stdio.o) (_read_r)
/Applications/NetBurner/gcc-m68k/bin/../lib/gcc/m68k-elf/4.2.1/m5206e/libgcc.a(_muldi3.o)
                              /Applications/NetBurner/gcc-m68k/bin/../lib/gcc/m68k-elf/4.2.1/../../../../m68k-elf/lib/m5206e/libc.a(lib_a-rand.o) (__muldi3)

Allocating common symbols
Common symbol       size              file

NotifyUpdatePtr     0x4               /Users/dciliske/nndk/lib/NetBurner.a(system.o)
BspTickMaxCount     0x2               /Users/dciliske/nndk/lib/MOD5441X.a(bsp.o)
errno               0x4               /Users/dciliske/nndk/lib/MOD5441X.a(bsp.o)
TERR_REGISTER       0x1               /Users/dciliske/nndk/lib/MOD5441X.a(bsp.o)
heap_ptr            0x4               /Users/dciliske/nndk/lib/MOD5441X.a(bsp.o)
OSIdleTaskStk       0x2000            /Users/dciliske/nndk/lib/NetBurner.a(ucosmain.o)
WDEBUGSTRUCT        0x8               /Users/dciliske/nndk/lib/NetBurner.a(debugtrap.o)
rnd_collect         0x200             /Users/dciliske/nndk/lib/NetBurner.a(system.o)
CPU_CLOCK           0x4               /Users/dciliske/nndk/lib/MOD5441X.a(bsp.o)
WDEBUGSTRUCTP       0x4               /Users/dciliske/nndk/lib/NetBurner.a(debugtrap.o)
config_rec_buf      0x800             /Users/dciliske/nndk/lib/NetBurner.a(system.o)

Memory Configuration

Name             Origin             Length             Attributes
ram              0x0000000040000400 0x0000000003fffcff xrw
SRAM             0x0000000080000400 0x000000000000fbf0 xrw
*default*        0x0000000000000000 0xffffffffffffffff

Linker script and memory map

LOAD /Applications/NetBurner/gcc-m68k/bin/../lib/gcc/m68k-elf/4.2.1/../../../../m68k-elf/lib/m5206e/nb-crt0.o
LOAD /Applications/NetBurner/gcc-m68k/bin/../lib/gcc/m68k-elf/4.2.1/m5206e/crtbegin.o
LOAD /Users/dciliske/nndk/MOD5441X/lib/sys.ld
                0x0000000040000000                ovector_base = 0x40000000
                0x0000000080000000                vector_base = 0x80000000
                0x0000000080000400                SRAM_START_ADDR = 0x80000400
                0x0000000080010000                SRAM_END_ADDR = 0x80010000
                0x00000000c0000000                gConfigRec = 0xc0000000
                0x00000000c0020000                UserParamBase = 0xc0020000
                0x00000000c0040000                FlashAppBase = 0xc0040000
                0x00000000ec008000                sim1 = 0xec008000
                0x00000000fc004000                sim2 = 0xfc004000
                0x00000000fc0d4008                DBETHER_EMIR_REG = 0xfc0d4008
LOAD ./main.o
LOAD ./stepper.o
START GROUP
LOAD /Users/dciliske/nndk/lib/MOD5441X.a
LOAD /Users/dciliske/nndk/lib/NetBurner.a
LOAD /Users/dciliske/nndk/lib/FatFile.a
END GROUP
LOAD /Applications/NetBurner/gcc-m68k/bin/../lib/gcc/m68k-elf/4.2.1/../../../../m68k-elf/lib/m5206e/libstdc++.a
LOAD /Applications/NetBurner/gcc-m68k/bin/../lib/gcc/m68k-elf/4.2.1/../../../../m68k-elf/lib/m5206e/libm.a
LOAD /Applications/NetBurner/gcc-m68k/bin/../lib/gcc/m68k-elf/4.2.1/m5206e/libgcc.a
LOAD /Applications/NetBurner/gcc-m68k/bin/../lib/gcc/m68k-elf/4.2.1/../../../../m68k-elf/lib/m5206e/libc.a
LOAD /Applications/NetBurner/gcc-m68k/bin/../lib/gcc/m68k-elf/4.2.1/m5206e/libgcc.a
LOAD /Applications/NetBurner/gcc-m68k/bin/../lib/gcc/m68k-elf/4.2.1/m5206e/crtend.o
START GROUP
LOAD /Applications/NetBurner/gcc-m68k/bin/../lib/gcc/m68k-elf/4.2.1/../../../../m68k-elf/lib/m5206e/libc.a
LOAD /Applications/NetBurner/gcc-m68k/bin/../lib/gcc/m68k-elf/4.2.1/m5206e/libgcc.a
LOAD /Applications/NetBurner/gcc-m68k/bin/../lib/gcc/m68k-elf/4.2.1/../../../../m68k-elf/lib/m5206e/libm.a
END GROUP
                0x0000000000000000                __DYNAMIC = 0x0
                0x0000000044000000                PROVIDE (__stack, 0x44000000)
                0x0000000000000000                PROVIDE (hardware_init_hook, 0x0)
                0x0000000000000000                PROVIDE (_hardware_init_hook, 0x0)
                0x0000000000000000                PROVIDE (software_init_hook, 0x0)
                0x0000000000000000                PROVIDE (_software_init_hook, 0x0)

.SRAM_SECT      0x0000000080000400     0xce70
                0x0000000080000400                SRAM_START = .
 *(SYS_VAR_SECT)
 SYS_VAR_SECT   0x0000000080000400      0x5c0 /Users/dciliske/nndk/lib/NetBurner.a(ucos.o)
                0x000000008000052c                TimeTick
                0x000000008000051c                OSLockNesting
                0x0000000080000526                OSRunning
                0x0000000080000724                taskpc
                0x0000000080000508                OSTCBList
                0x00000000800008b8                OSMapTbl
                0x0000000080000528                Secs
                0x0000000080000514                OSTCBFreeList
                0x0000000080000524                OSISRLevel
                0x0000000080000530                tasklisttask
                0x0000000080000510                OSTCBHighRdy
                0x0000000080000520                OSRdyGrp
                0x00000000800008c0                OSUnMapTbl
                0x0000000080000594                tasklisttim
                0x0000000080000500                OSRdyTbl
                0x0000000080000518                OSIntNesting
                0x000000008000050c                OSTCBCur
                0x0000000080000400                OSTCBPrioTbl
                0x00000000800008b4                tasklistn
 SYS_VAR_SECT   0x00000000800009c0      0x24c /Users/dciliske/nndk/lib/NetBurner.a(ucosmain.o)
                0x00000000800009c0                OSTcbStructSize
                0x00000000800009d8                critical_count
                0x00000000800009dc                OSTCBTbl
 SYS_VAR_SECT   0x0000000080000c0c       0x1c /Users/dciliske/nndk/lib/NetBurner.a(fileio.o)
                0x0000000080000c18                pExtraFdFunc
                0x0000000080000c1c                fd_map
 SYS_VAR_SECT   0x0000000080000c28       0x20 /Users/dciliske/nndk/lib/NetBurner.a(iosys.o)
                0x0000000080000c28                read_file_sets
                0x0000000080000c38                error_file_sets
                0x0000000080000c30                write_file_sets
                0x0000000080000c48                SYS_VAR_SECT_END = .
                0x0000000080000c50                . = ALIGN (0x10)
 *fill*         0x0000000080000c48        0x8 00
 *(IDLE_STK_SECT)
                0x0000000080000c50                IDLE_STK_SECT_END = .
                0x0000000080000c50                . = ALIGN (0x10)
 *(MAIN_STK_SECT)
 MAIN_STK_SECT  0x0000000080000c50     0x4000 /Users/dciliske/nndk/lib/NetBurner.a(main.o)
                0x0000000080000c50                MainStk
                0x0000000080004c50                MAIN_STK_SECT_END = .
                0x0000000080004c50                . = ALIGN (0x4)
 *(ETHER_VAR_SECT)
 ETHER_VAR_SECT
                0x0000000080004c50      0x252 /Users/dciliske/nndk/lib/MOD5441X.a(ethernet.o)
                0x0000000080004e90                FecFifo
                0x0000000080004c50                enet0
                0x0000000080004d70                enet1
                0x0000000080004ea2                ETHER_VAR_SECT_END = .
                0x0000000080004eb0                . = ALIGN (0x10)
 *fill*         0x0000000080004ea2        0xe 00
 *(ETHER_STK_SECT)
 ETHER_STK_SECT
                0x0000000080004eb0     0x2000 /Users/dciliske/nndk/lib/MOD5441X.a(ethernet.o)
                0x0000000080004eb0                EtherSendStk
                0x0000000080006eb0                ETHER_STK_SECT_END = .
                0x0000000080006eb0                . = ALIGN (0x4)
 *(IP_VAR_SECT)
 IP_VAR_SECT    0x0000000080006eb0      0x2fe /Users/dciliske/nndk/lib/NetBurner.a(ip.o)
                0x0000000080006ece                pDHCPServerTick
                0x0000000080006eb2                bTTL_Default
                0x00000000800071a6                next_arp_time
                0x0000000080006eb4                ipRxFifo
                0x0000000080006eea                multi_home_if_record
                0x0000000080006ec6                IcmpFifo
                0x0000000080006ee6                nAdditional_Homes
                0x0000000080006eb0                wGlobalPktId
                0x0000000080006eda                pPromisciousPacketFunc
                0x0000000080006ee2                pFragFunc
                0x0000000080006ede                pMultiCastFunc
                0x00000000800071aa                delay
                0x0000000080006ed6                pAutoIPTick
                0x0000000080006ed2                pMultiTick
                0x0000000080006eca                pDHCPTick
                0x0000000080006f12                multi_if_block
 IP_VAR_SECT    0x00000000800071ae       0x78 /Users/dciliske/nndk/lib/NetBurner.a(udp.o)
                0x0000000080007222                UdpNetbiosNameServicePtr
                0x000000008000721a                pDHCPServerProcessFunction
                0x00000000800071ae                udp_fifos
                0x0000000080007216                pDHCPProcessFunction
                0x000000008000721e                pTaskPacketFunc
                0x0000000080007212                UDP_fifos_used
                0x0000000080007226                IP_VAR_SECT_END = .
                0x0000000080007230                . = ALIGN (0x10)
 *fill*         0x0000000080007226        0xa 00
 *(IP_STK_SECT)
 IP_STK_SECT    0x0000000080007230     0x3000 /Users/dciliske/nndk/lib/NetBurner.a(ip.o)
                0x0000000080007230                IPStk
                0x000000008000a230                IP_STK_SECT_END = .
                0x000000008000a230                . = ALIGN (0x4)
 *(TCP_VAR_SECT)
 TCP_VAR_SECT   0x000000008000a230       0x1e /Users/dciliske/nndk/lib/NetBurner.a(tcp.o)
                0x000000008000a240                TCP_TimerSemaphore
                0x000000008000a230                TCP_critical_section
                0x000000008000a24e                TCP_VAR_SECT_END = .
                0x000000008000a250                . = ALIGN (0x10)
 *fill*         0x000000008000a24e        0x2 00
 *(TCP_STK_SECT)
 TCP_STK_SECT   0x000000008000a250     0x3000 /Users/dciliske/nndk/lib/NetBurner.a(tcp.o)
                0x000000008000a250                TCPStk
                0x000000008000d250                TCP_STK_SECT_END = .
                0x000000008000d250                . = ALIGN (0x10)
 *(HTTP_STK_SECT)
                0x000000008000d250                HTTP_STK_SECT_END = .
                0x000000008000d250                . = ALIGN (0x10)
 *(FTP_STK_SECT)
                0x000000008000d250                FTP_STK_SECT_END = .
                0x000000008000d250                . = ALIGN (0x10)
 *(WIFI_STK_SECT)
                0x000000008000d250                WIFI_STK_SECT_END = .
                0x000000008000d250                . = ALIGN (0x10)
 *(PPP_STK_SECT)
                0x000000008000d250                PPP_STK_SECT_END = .
                0x000000008000d250                . = ALIGN (0x10)
 *(COMMAND_STK_SECT)
                0x000000008000d250                COMMAND_STK_SECT_END = .
                0x000000008000d250                . = ALIGN (0x4)
 *(USER_VAR_SECT)
                0x000000008000d250                USER_VAR_SECT_END = .
                0x000000008000d250                . = ALIGN (0x10)
 *(USER_STK_SECT)
                0x000000008000d250                USER_STK_SECT_END = .
                0x000000008000d250                BUFFERS_SECT_START = .
                0x000000008000d250                . = ALIGN (0x10)
 *(BUFFERS_VAR_SECT)
 BUFFERS_VAR_SECT
                0x000000008000d250       0x1c /Users/dciliske/nndk/lib/NetBurner.a(buffers.o)
                0x000000008000d250                FAST_BUFFER_POOL_SIZE
                0x000000008000d25e                free_fast_list
                0x000000008000d268                free_list_is_initialized
                0x000000008000d254                free_list
                0x000000008000d270                . = ALIGN (0x10)
 *fill*         0x000000008000d26c        0x4 00
                0x000000008000d270                BUFFERS_VAR_SECT_END = .
                0x000000008000d270                . = ALIGN (0x10)
                0x000000008000d270                SRAM_END = .

.text           0x0000000040000400    0x27310
 *(.text)
 .text          0x0000000040000400       0xaa /Applications/NetBurner/gcc-m68k/bin/../lib/gcc/m68k-elf/4.2.1/../../../../m68k-elf/lib/m5206e/nb-crt0.o
                0x0000000040000400                start
 *fill*         0x00000000400004aa        0x2 00
 .text          0x00000000400004ac       0x9c /Applications/NetBurner/gcc-m68k/bin/../lib/gcc/m68k-elf/4.2.1/m5206e/crtbegin.o
 .text          0x0000000040000548      0x1f6 ./main.o
                0x0000000040000548                UserMain
 *fill*         0x000000004000073e        0x2 00
 .text          0x0000000040000740      0x6f8 ./stepper.o
                0x0000000040000794                _Z17fake_StepPit2_ISRv
                0x00000000400007e8                _Z16ConfigureStepperP13StepperConfigi
                0x0000000040000d4c                real_StepPit2_ISR
                0x0000000040000914                _Z11StepperDonei
                0x000000004000095c                real_StepPit1_ISR
                0x0000000040000740                _Z17fake_StepPit1_ISRv
                0x0000000040000a48                _Z21ConfigureStepperTimerii
                0x0000000040000bc0                _Z11MoveStepperimiiP6os_sem
                0x0000000040000798                StepPit2_ISR
                0x0000000040000828                _Z14ChangeStepRateii
                0x0000000040000744                StepPit1_ISR
                0x00000000400008a0                _Z11StopStepperi
                0x0000000040000b28                _Z12StartStepperiii
 .text          0x0000000040000e38      0x430 /Users/dciliske/nndk/lib/MOD5441X.a(bsp.o)
                0x0000000040001080                GetUserParameters
                0x0000000040000fdc                _sbrk_r
                0x0000000040001120                HardwareSetup
                0x0000000040000f2c                DisableCache
                0x0000000040001034                spaceleft
                0x0000000040000e4c                Tick5441X
                0x0000000040001104                ForceReboot
                0x000000004000106c                BspGetTickFraction
                0x0000000040000e48                xTick
                0x0000000040001028                atexit
                0x0000000040001090                SaveUserParameters
                0x0000000040000fa4                EnableCache
                0x0000000040000e38                CatchNullWrites
                0x0000000040000e64                SetIntc
 .text          0x0000000040001268      0x26a /Users/dciliske/nndk/lib/MOD5441X.a(flash.o)
                0x00000000400012e0                FlashProgram
                0x0000000040001268                FlashErase
 *fill*         0x00000000400014d2        0x2 00
 .text          0x00000000400014d4     0x1d06 /Users/dciliske/nndk/lib/MOD5441X.a(pins.o)
                0x00000000400014d4                _ZN5PinIO3setEh
                0x0000000040002a68                _ZN5PinIO8functionEi
                0x0000000040001fcc                _ZN5PinIO5driveEv
                0x0000000040003178                CReadPin
                0x00000000400023f8                _ZN5PinIO4readEv
                0x000000004000319c                CGPInPin
 *fill*         0x00000000400031da        0x6 00
 .text          0x00000000400031e0      0x44a /Users/dciliske/nndk/lib/NetBurner.a(ucosmcfa.o)
                0x00000000400032c0                OSDebugTraceHalt
                0x00000000400031e0                OSStartHighRdy
                0x00000000400032d0                TrapOutByte
                0x0000000040003300                memcpy
                0x0000000040003300                fmemcpy
                0x0000000040003200                OSCtxSw
                0x00000000400032f0                TrapCharAvail
                0x0000000040003230                OSIntCtxSw
                0x00000000400032e0                TrapInByte
                0x0000000040003260                OSTickISR
                0x00000000400033d0                memcpysum
                0x00000000400032a0                OSSetupVBR
                0x0000000040003600                GetSR_IntLevel
                0x0000000040003560                memset
                0x0000000040003560                fmemset
                0x0000000040003610                SetSR_IntLevel
 *fill*         0x000000004000362a        0x2 00
 .text          0x000000004000362c        0x8 /Users/dciliske/nndk/lib/NetBurner.a(software_init.o)
                0x000000004000362c                software_init_hook
 .text          0x0000000040003634     0x2162 /Users/dciliske/nndk/lib/NetBurner.a(ucos.o)
                0x0000000040005168                OSCritEnterNoWait
                0x00000000400055e4                ShowTaskList
                0x00000000400037f8                UCOSWAITS_HERE
                0x0000000040004e14                OSFifoPostFirst
                0x00000000400051dc                OSCritLeave
                0x00000000400036b8                OSLogTaskPos
                0x0000000040004f74                getpid
                0x0000000040003a04                OSLock
                0x00000000400048e4                OSQPostFirst
                0x00000000400052f4                OSTaskID
                0x00000000400046d0                OSQPendNoWait
                0x000000004000530c                OSSetName
                0x0000000040005334                OSIntExit
                0x0000000040003efc                OSSemPendNoWait
                0x0000000040003bd8                OSTaskDelete
                0x0000000040003a58                OSUnlock
                0x0000000040004f8c                OSCritInit
                0x000000004000474c                OSQPost
                0x0000000040004fc8                OSCritEnter
                0x0000000040004ad0                OSFifoPend
                0x0000000040003d50                OSSemPend
                0x00000000400040c8                OSMboxInit
                0x0000000040004304                OSMboxPost
                0x0000000040004a84                OSFifoInit
                0x00000000400044e8                OSQPend
                0x000000004000375c                OSSched
                0x0000000040003830                OSTimeDly
                0x0000000040003f3c                OSSemPost
                0x0000000040003ac4                OSChangePrio
                0x00000000400039d4                OSTCBGetFree
                0x0000000040003808                OSIntEnterWAS
                0x00000000400042bc                OSMboxPendNoWait
                0x0000000040004cb4                OSFifoPost
                0x0000000040003cf0                OSSemInit
                0x00000000400053f0                OSStart
                0x0000000040003634                OSLogTask
                0x00000000400038e8                OSTimeTick
                0x0000000040004474                OSQInit
                0x0000000040005320                OSTaskName
                0x0000000040004c64                OSFifoPendNoWait
                0x000000004000411c                OSMboxPend
                0x000000004000546c                OSInit
                0x00000000400038c8                OSChangeTaskDly
 *fill*         0x0000000040005796        0x2 00
 .text          0x0000000040005798      0x180 /Users/dciliske/nndk/lib/NetBurner.a(debugtrap.o)
                0x00000000400058c0                SetAddressReadRangeTrap
                0x0000000040005880                SetAddressReadTrap
                0x0000000040005798                WDEBUG
                0x0000000040005828                SetAddressWriteRangeTrap
                0x00000000400057e8                SetAddressWrittenTrap
 .text          0x0000000040005918      0x5c0 /Users/dciliske/nndk/lib/NetBurner.a(ucosmain.o)
                0x0000000040005dfc                __malloc_unlock
                0x0000000040005d20                UCosBegin
                0x0000000040005918                OSDumpTCBStacks
                0x0000000040005cb0                OSDumpTasks
                0x0000000040005e1c                balloc_lock
                0x0000000040005e5c                UCosSetup
                0x0000000040005de0                balloc_unlock
                0x00000000400059fc                DumpTCBState
                0x0000000040005e3c                __malloc_lock
 .text          0x0000000040005ed8      0x5f8 /Users/dciliske/nndk/lib/NetBurner.a(fileio.o)
                0x0000000040006068                ioctl
                0x0000000040005ed8                isatty
                0x0000000040005fc0                CurrentStdioFD
                0x0000000040006038                lseek
                0x0000000040005f10                ReplaceStdio
                0x00000000400060d4                write
                0x0000000040005ef4                fstat
                0x0000000040006204                rawwrite
                0x0000000040006410                stdioinbyte
                0x0000000040006288                read
                0x0000000040005ff0                outbyte
                0x0000000040006050                open
                0x0000000040006008                charavail
                0x0000000040005fe4                fcntl
                0x0000000040006488                close
 .text          0x00000000400064d0       0x78 /Users/dciliske/nndk/lib/NetBurner.a(main.o)
                0x0000000040006508                main
                0x00000000400064d0                __do_global_ctors
 .text          0x0000000040006548     0x545e /Users/dciliske/nndk/lib/NetBurner.a(tcp.o)
                0x0000000040007c30                _Z10SendTcpRstP5IPPKT
                0x0000000040006b84                _Z11GetTcpStatei
                0x0000000040007ee0                _Z7InitTCPv
                0x00000000400089c4                _Socket_Private_read
                0x0000000040006b38                _ZN15ShortSocketListC2Ev
                0x0000000040006be4                _Z20SetOutOfOrderbuffersih
                0x00000000400067b8                _Z19GetSocketRemotePorti
                0x0000000040007398                _ZN13socket_struct18MyAdvertisedWindowEv
                0x0000000040007234                _Z18SetSocketTxBuffersii
                0x00000000400068cc                _Z13setsockoptionii
                0x00000000400076e4                _Z7TcpSendP13socket_structmP11pool_bufferth
                0x000000004000ab10                _Z12TCPTimerTaskPv
                0x000000004000b30c                _Z11process_tcpP11pool_bufferP5IPPKTt
                0x0000000040009020                _ZN13socket_struct10ProcessRSTEv
                0x000000004000b8dc                _Z17NoBlockconnectviamttm
                0x0000000040006c28                _Z16TcpGetLastRxTimei
                0x000000004000913c                abortsocket
                0x0000000040009520                _ZN13socket_struct18ProcessDataSegmentEP6TCPPKTtPhRP11pool_buffer
                0x000000004000b734                _Z10connectviamttmm
                0x00000000400084f8                _ZNK14HashSocketList12RemoveSocketEP13socket_struct
                0x0000000040009bb8                _Socket_Private_write
                0x0000000040006904                _Z13getsockoptioni
                0x000000004000a200                _ZN13socket_struct10ProcessAckEP6TCPPKT
                0x00000000400089e0                _ZN13socket_struct8SaveDataEPhth
                0x00000000400081e8                _Z14GetTcpRtxCounti
                0x00000000400066ac                _Z10fixoverlapmmRmS_
                0x0000000040008cc0                _ZN13socket_struct8SetTimerEm
                0x000000004000b8b4                _Z7connectmttm
                0x0000000040006990                _ZN14HashSocketListC1Ev
                0x000000004000873c                _Z12GetTcpSocketP6TCPPKTm
                0x000000004000b92c                _Z14NoBlockConnectmttm
                0x0000000040006eb4                _Z23TcpGetRxBufferSpaceUsedi
                0x0000000040009800                _ZN13socket_struct9DoRawSendEv
                0x0000000040006ef4                _Z15ShowFdTcpSocketi
                0x00000000400071b8                _ZN13socket_struct12ClearPendingEi
                0x000000004000825c                _ZNK15ShortSocketList10findsocketEttm
                0x000000004000b82c                _Z7connectmttmm
                0x0000000040008174                _Z16TcpSendKeepAlivei
                0x0000000040006728                _Z14getsocketerrori
                0x0000000040006978                _Z14EnableTcpDebugt
                0x000000004000aa1c                _ZN13socket_struct12ProcessTimerEv
                0x00000000400096dc                _ZN13socket_struct19SetUpNextRetransmitEv
                0x0000000040006988                _ZN14HashSocketListC2Ev
                0x0000000040006e74                _Z24TcpGetTxBufferAvailSpacei
                0x00000000400087f4                SockReadWithTimeout
                0x0000000040007e74                _Z18GetFreeSocketCountv
                0x000000004000a4ac                _ZN13socket_struct10ProcessFINEP6TCPPKTt
                0x0000000040007410                _Z19FixHeaderAndSendTcpP11pool_bufferP5IPPKTP13socket_struct
                0x0000000040006934                _Z19setsocketackbuffersih
                0x00000000400068ac                _ZN13socket_struct22CleanUpDeletedListenerEv
                0x0000000040006668                _Z16FindListenSockettm
                0x000000004000751c                _Z11TcpSendwSumP13socket_structmP11pool_bufferthm
                0x0000000040008d40                _ZN13socket_struct9DoCleanupEv
                0x0000000040008ad0                _ZN13socket_struct14TestOutofOrderEv
                0x0000000040006c98                _Z20TcpGetLastRxIntervali
                0x0000000040006548                _Z11GetFirstSeqv
                0x00000000400080e0                _Z10FREESOCKETP13socket_struct
                0x0000000040008f18                _ZN15ShortSocketList9AddSocketEP13socket_struct
                0x000000004000a0e4                _ZN13socket_struct12DoRetransmitEh
                0x0000000040006b48                _ZN15ShortSocketList4InitEv
                0x0000000040008300                _ZN15ShortSocketList11processTickEv
                0x000000004000b424                _ZN13socket_struct11CoreConnectEmttm
                0x000000004000a620                _Socket_Private_close
                0x000000004000a760                _Z6acceptiPmPtt
                0x0000000040006b40                _ZN15ShortSocketListC1Ev
                0x0000000040007274                _Z18SetSocketRxBuffersii
                0x000000004000935c                _Z6listenmth
                0x0000000040006998                _ZNK14HashSocketList4InitEv
                0x00000000400069b0                _ZN15ShortSocketList12GetFreeShortEv
                0x0000000040006788                _Z19GetSocketRemoteAddri
                0x0000000040008664                _ZNK14HashSocketList10findsocketEttm
                0x0000000040006e08                _Z18WaitForSocketFlushim
                0x0000000040006980                _Z13DumpTcpPacketP5IPPKT
                0x0000000040009464                _Z23RemoveFromUserCloseListP13socket_struct
                0x000000004000658c                _Z11ValidateTCPP5IPPKTt
                0x00000000400083b0                _ZNK15ShortSocketList7processEP11pool_bufferP6TCPPKTm
                0x0000000040006578                _ZN13socket_struct8SetStateEi
                0x00000000400072b4                _ZN13socket_struct14processoptionsEP11pool_bufferP6TCPPKTP5IPPKT
                0x0000000040009de0                _ZN13socket_struct7DoCloseEi
                0x0000000040009270                _Z13GetFreeSocketv
                0x00000000400067e8                _Z18GetSocketLocalPorti
                0x00000000400085b0                _ZNK14HashSocketList9AddSocketEP13socket_struct
                0x0000000040006af8                _ZNK15ShortSocketList9FreeShortEP11ShortSocket
                0x0000000040006818                _ZN13socket_struct7CalcRTOEm
                0x0000000040007bd8                _ZN13socket_struct10OpenWindowEv
                0x0000000040007d44                _Z13SendTcpSynRstP5IPPKT
                0x0000000040006db8                _Z15TcpAllDataAckedi
                0x0000000040009b38                _Z13clrsockoptionii
                0x0000000040006c5c                _Z17TcpGetSocketStatei
                0x0000000040006970                _Z12DumpTcpDebugv
                0x0000000040006758                _Z18GetSocketLocalAddri
                0x000000004000ac44                _ZN13socket_struct7processEP11pool_bufferP6TCPPKT
                0x0000000040006bb8                RegisterTCPReadNotify
                0x0000000040007774                _ZN13socket_struct9SendStateEtP11pool_buffer
 *fill*         0x000000004000b9a6        0x2 00
 .text          0x000000004000b9a8      0x69e /Users/dciliske/nndk/lib/NetBurner.a(iosys.o)
                0x000000004000bde4                SetDataAvail
                0x000000004000bc84                writeall
                0x000000004000bce4                _Z15RawCheckSelectsv
                0x000000004000bd90                SetHaveError
                0x000000004000be20                _Z12RemoveSelectP13PendingSelect
                0x000000004000bda8                SetWriteAvail
                0x000000004000bb74                ZeroWaitSelect
                0x000000004000bea0                _Z9AddSelectP13PendingSelect
                0x000000004000bac8                FD_ISSET
                0x000000004000ba70                ClrDataAvail
                0x000000004000bef8                select
                0x000000004000ba58                ClrWriteAvail
                0x000000004000bd5c                _Z12CheckSelectsv
                0x000000004000bc28                writestring
                0x000000004000bb38                _Z9countbitsP6fd_set
                0x000000004000b9a8                _Z10FD_OVERLAPP6fd_setS0_
                0x000000004000bbf8                dataavail
                0x000000004000b9e4                FD_ZERO
                0x000000004000ba88                FD_SET
                0x000000004000ba40                ClrHaveError
                0x000000004000bb14                _Z11countdwbitsm
                0x000000004000bf98                ReadWithTimeout
                0x000000004000b9fc                FD_CLR
 *fill*         0x000000004000c046        0x2 00
 .text          0x000000004000c048      0x4b2 /Users/dciliske/nndk/lib/NetBurner.a(netinterface.o)
                0x000000004000c42c                _Z17InitializeNetworkPFvP11pool_bufferP6EFRAMEtEPFvS0_S2_E
                0x000000004000c100                _Z11InterfaceIPi
                0x000000004000c1f4                _Z9GetEframeP11pool_buffer
                0x000000004000c3cc                _Z12SaveIfConfigP12ConfigRecordi
                0x000000004000c2c0                _Z26RegisterMultiHomeInterfaceP15_InterfaceBlock
                0x000000004000c048                _Z17GetFirstInterfacev
                0x000000004000c3fc                _Z11GetIfConfigi
                0x000000004000c1b0                _Z12InterfaceMACi
                0x000000004000c0ac                _Z17GetInterFaceBlocki
                0x000000004000c12c                _Z12InterfaceDNSi
                0x000000004000c158                _Z13InterfaceMASKi
                0x000000004000c068                _Z16GetnextInterfacei
                0x000000004000c498                _Z14TransmitBufferP11pool_bufferi
                0x000000004000c260                _Z16DisableMulticast6MACADRi
                0x000000004000c328                _Z17RegisterInterfaceP15_InterfaceBlock
                0x000000004000c208                _Z15EnableMulticast6MACADRi
                0x000000004000c398                _Z15Removeinterfacei
                0x000000004000c2b8                _Z12StopNetworksv
                0x000000004000c0d8                _Z18GetInterfaceNumberP15_InterfaceBlock
                0x000000004000c184                _Z13InterfaceGatei
 *fill*         0x000000004000c4fa        0x2 00
 .text          0x000000004000c4fc     0x131e /Users/dciliske/nndk/lib/NetBurner.a(smarttrap.o)
                0x000000004000c530                _Z16EnableSmartTrapsv
                0x000000004000c610                _Z9WalkStackP6os_tcbmm
                0x000000004000caf0                smart_trap_asm
                0x000000004000c910                _Z17Local_OutTCBStateP6os_tcbmm
                0x000000004000c4fc                _Z8SafeReadm
                0x000000004000c54c                _Z12Local_OutHexmi
                0x000000004000cae8                _Z17Smart_Trap_Holderv
                0x000000004000c5e0                _Z15Local_OutStringPKc
                0x000000004000c68c                _Z18Local_ShowTaskNamePV6os_tcb
 *fill*         0x000000004000d81a        0x2 00
 .text          0x000000004000d81c       0x52 /Users/dciliske/nndk/lib/NetBurner.a(device.o)
                0x000000004000d83c                DeviceInitializeSem
                0x000000004000d81c                _Z16DeviceGetQspiSemv
                0x000000004000d82c                _Z15DeviceGetI2cSemv
 *fill*         0x000000004000d86e        0x2 00
 .text          0x000000004000d870       0xb6 /Users/dciliske/nndk/lib/NetBurner.a(release_tag.o)
                0x000000004000d870                GetReleaseTag
 *fill*         0x000000004000d926        0x2 00
 .text          0x000000004000d928        0x0 /Users/dciliske/nndk/lib/NetBurner.a(release_tagdata.o)
 .text          0x000000004000d928       0x9a /Users/dciliske/nndk/lib/NetBurner.a(init.o)
                0x000000004000d928                _Z4initv
 *fill*         0x000000004000d9c2        0x2 00
 .text          0x000000004000d9c4     0x1948 /Users/dciliske/nndk/lib/NetBurner.a(nbiprintf.o)
                0x000000004000df14                _Z8prespaceiiiPFbPvPKciES_Ri
                0x000000004000da48                _Z13decimallenully
                0x000000004000e014                _Z26NormalGetNextParamFunctionPv
                0x000000004000d9c4                _Z10decimallenm
                0x000000004000e028                _Z15CoreLongLongDecyPFbPvPKciES_R7pfstate
                0x000000004000f2f0                _Z8putcharsPvPKci
                0x000000004000dc48                _Z6octlenm
                0x000000004000dcdc                _Z6binlenm
                0x000000004000f2c0                _Z19NB_internal_iprintfPFbPvPKciES_Pm
                0x000000004000e3a4                _Z23NB_internal_iprintf_indPFbPvPKciES_PFmS_ES_
                0x000000004000f2dc                iprintf
                0x000000004000dfc4                _Z8leadzeroiiiPFbPvPKciES_Ri
                0x000000004000dc04                _Z9hexlenully
                0x000000004000df6c                _Z9postspaceiiiPFbPvPKciES_Ri
                0x000000004000e220                _Z7CoreDecmPFbPvPKciES_R7pfstate
                0x000000004000db98                _Z6hexlenm
                0x000000004000debc                _Z10Put20CharsPvPFbS_PKciEiS1_
 .text          0x000000004000f30c      0x334 /Users/dciliske/nndk/lib/NetBurner.a(ucosmcfc.o)
                0x000000004000f608                OSTaskCreate
                0x000000004000f634                TopOfStackKillfunction
                0x000000004000f3d4                OSTaskCreatewName
                0x000000004000f30c                OSTCBInit
                0x000000004000f638                KillFunctionLink
 .text          0x000000004000f640      0x6a0 /Users/dciliske/nndk/lib/NetBurner.a(system.o)
                0x000000004000f9d8                UpdateConfigRecord_Num
                0x000000004000f694                RawGetConfig
                0x000000004000f640                isvalidcr
                0x000000004000fb9c                SetupDialog
                0x000000004000f750                ReadLine
                0x000000004000fb88                UpdateConfigRecord
                0x000000004000f6c0                GetValidConfig
                0x000000004000f924                IpQuestion
                0x000000004000f6e8                ShowChange
 .text          0x000000004000fce0      0xd08 /Users/dciliske/nndk/lib/NetBurner.a(utils.o)
                0x0000000040010750                fShowMac
                0x000000004000ff54                _Z9FancyDumpPhi
                0x0000000040010884                ShowCounters
                0x000000004000fd80                ValidIPv4
                0x000000004000fe9c                convertHexAsciiToBinary
                0x0000000040010114                ShowData
                0x00000000400107ac                snShowIP
                0x000000004000fce0                kill
                0x00000000400108ec                fShowCounters
                0x0000000040010710                fShowIP
                0x000000004000fcf0                _fini
                0x0000000040010080                ShowIP
                0x000000004000fcfc                AsciiToIp
                0x0000000040010964                sShowCounters
                0x0000000040010850                _Z14DiagMenuPickerih
                0x00000000400100bc                ShowMac
                0x000000004000fe04                convertBinaryToHexAscii
                0x000000004000ff3c                __builtin_delete
                0x000000004000fce8                _exit
                0x00000000400107f0                snShowMac
 .text          0x00000000400109e8     0x1aaa /Users/dciliske/nndk/lib/NetBurner.a(ip.o)
                0x0000000040010e38                _Z9FixUpICMPP5IPPKThhPht
                0x0000000040010ba8                _Z11IsMultiCastm
                0x00000000400117d8                _Z16FixHeaderAndSendP11pool_bufferP5IPPKT
                0x000000004001114c                _Z10DoIPPacketP11pool_bufferP6EFRAMEt
                0x0000000040010aa4                GetSum20
                0x0000000040011ad4                PingViaInterface
                0x00000000400110ec                _Z9SaveErrorP11pool_buffer
                0x000000004001145c                _Z12process_icmpP11pool_bufferP5IPPKTt
                0x0000000040010ce4                IpProcessEthernetPacket
                0x0000000040011310                _Z28FixHeaderAndSendViaInterfaceP11pool_bufferP5IPPKTi
                0x0000000040011d50                _Z12ShowIPBufferP11pool_buffer
                0x0000000040011938                _Z13SendICMPErrorP11pool_bufferhh
                0x0000000040010f50                _Z15InitializeStackmmmm
                0x0000000040010bf8                _Z7GetDataP5IPPKT
                0x0000000040011074                InitializeCStack
                0x0000000040011be4                Ping
                0x00000000400109e8                GetSum
                0x0000000040011080                _Z21GetMultiHomeInterfacemi
                0x0000000040011130                IsMyIp
                0x0000000040010ef4                _Z11IsBroadCastmi
                0x0000000040010ea0                KillStack
                0x0000000040010c24                _Z15PrepareIPOutputP11pool_buffermt
                0x0000000040010bc8                _Z15GetMultiAddressm
                0x0000000040011a0c                SendPing
                0x0000000040010adc                GetSumHdr
                0x0000000040010eac                _Z7IsLocalmi
                0x0000000040011c18                _Z19GetLocalIPInterfacem
                0x0000000040011c70                _Z12AddInterfacemmmi
                0x0000000040011578                _Z6IPTaskPv
 *fill*         0x0000000040012492        0x2 00
 .text          0x0000000040012494      0xeec /Users/dciliske/nndk/lib/NetBurner.a(buffers.o)
                0x0000000040012578                FreeBufferList
                0x0000000040012984                _ZN19fifo_buffer_storage4FullEv
                0x00000000400129cc                _ZN19fifo_buffer_storage7GetTailEv
                0x0000000040012a84                ShowBuffer
                0x0000000040012d68                _ZN19fifo_buffer_storage5ResetEh
                0x00000000400125a8                InitBuffers
                0x00000000400126d4                _ZN11buffer_list12InsertBeforeEP11pool_bufferS1_
                0x00000000400128ac                GetBuffer
                0x0000000040012a64                _ZN19fifo_buffer_storageC2Ehh
                0x000000004001296c                _ZN19fifo_buffer_storage5EmptyEv
                0x00000000400131c4                _ZN19fifo_buffer_storage12ReadDatawSumEPhiRm
                0x0000000040012958                _ZN19fifo_buffer_storage9SpaceUsedEv
                0x0000000040012494                _Z11ShowBuffersv
                0x00000000400124c0                _ZN11buffer_list10InsertHeadEP11pool_buffer
                0x0000000040012bb0                GetFreeCount
                0x00000000400124a4                IncUsageCount
                0x0000000040012a44                _ZN19fifo_buffer_storageC1Ehh
                0x0000000040012670                _ZN11buffer_list10InsertTailEP11pool_buffer
                0x0000000040012e28                _ZN19fifo_buffer_storageD2Ev
                0x0000000040012f18                _ZN19fifo_buffer_storage13SetMaxBuffersEh
                0x0000000040012c28                _ZN19fifo_buffer_storage8ReadDataEPhi
                0x00000000400129dc                _ZN19fifo_buffer_storage4InitEhh
                0x000000004001249c                _Z11DumpBuffersv
                0x0000000040012844                _ZN11buffer_list10RemoveHeadEv
                0x00000000400127bc                _ZN11buffer_list6RemoveEP11pool_buffer
                0x00000000400128f8                _ZN11buffer_list10RemoveTailEv
                0x0000000040012e3c                _ZN19fifo_buffer_storage14LongSpaceAvailEv
                0x0000000040012fa8                _ZN19fifo_buffer_storage9WriteDataEPhi
                0x0000000040012530                FreeBuffer
                0x0000000040012748                _ZN11buffer_list11InsertAfterEP11pool_bufferS1_
                0x0000000040012ef4                _ZN19fifo_buffer_storage10SpaceAvailEv
                0x0000000040012e14                _ZN19fifo_buffer_storageD1Ev
 .text          0x0000000040013380     0x1922 /Users/dciliske/nndk/lib/NetBurner.a(arp.o)
                0x00000000400140b4                _Z10FindAddArpm
                0x00000000400134dc                _Z17sendGratuitousArpi
                0x00000000400133a8                _Z8MacEqual6MACADRS_
                0x00000000400136e4                _Z13InitializeArpv
                0x000000004001378c                _Z7FindArpm
                0x00000000400139e8                _Z7SendArpP9ArpRecordi
                0x0000000040013698                _Z12GetInterfacem
                0x0000000040014998                _Z11AddCheckArpP6MACADRmi
                0x0000000040013408                _Z6SetMacP9ArpRecord6MACADRi
                0x0000000040013ef0                _Z15DeleteArpFromIpm
                0x0000000040013890                _Z15GetArpMacFromIpmR6MACADR
                0x00000000400144c0                _Z11RouteOutViaP6EFRAMEmP11pool_bufferi
                0x0000000040013944                _Z18GetProperInterfacem
                0x0000000040014004                _Z10FreeOneArpv
                0x0000000040014a24                _Z10processArpP11pool_bufferP6EFRAME
                0x00000000400134a0                _Z8NeedsArpi
                0x0000000040013b18                _Z10GetNextArpP9ArpRecord
                0x00000000400135ac                _Z10RawSendArpP9ArpRecordmi
                0x0000000040013f10                _Z6AgeArpv
                0x00000000400146e0                _Z8RouteOutP6EFRAMEmP11pool_buffer
                0x0000000040013be0                _Z7ShowArpv
                0x0000000040013d20                _Z9DeleteArpP9ArpRecord
                0x0000000040013b88                _Z11GetFirstArpv
                0x0000000040013a54                GetSrcIp
                0x0000000040014350                _Z24IsMyAddressUsedArpDetectti
                0x00000000400133a0                _Z7Cleanupv
                0x0000000040013380                _Z6IsNullP9ArpRecord
                0x0000000040013c74                _Z8fShowArpP7__sFILE
                0x00000000400138e8                _Z10AddPendingP6MACADRmi
 *fill*         0x0000000040014ca2        0x2 00
 .text          0x0000000040014ca4     0x149c /Users/dciliske/nndk/lib/NetBurner.a(udp.o)
                0x000000004001556c                _ZN9UDPPacket4SendEmh
                0x0000000040014dec                _ZN9UDPPacket18SetDestinationPortEt
                0x0000000040014eb0                _ZN9UDPPacket11GetPacketIdEv
                0x0000000040014efc                _ZN9UDPPacket16GetSourceAddressEv
                0x0000000040015d80                _ZN9UDPPacketC2Ev
                0x00000000400152a8                _ZN9UDPPacket11AddDataByteEh
                0x0000000040015684                _ZN9UDPPacket11SendAndKeepEmh
                0x0000000040014f20                _Z15RegisterUDPFifotP7os_fifo
                0x00000000400152f0                _ZN9UDPPacket7AddDataEPKc
                0x0000000040014d18                _ZN9UDPPacketC2EP11pool_buffer
                0x00000000400153b0                _ZN9UDPPacket16SendViaInterfaceEmih
                0x0000000040014e98                _ZN9UDPPacket11GetIpPacketEv
                0x00000000400154d8                _ZN9UDPPacket7SendViaEmmh
                0x00000000400156f4                _ZN9UDPPacketD2Ev
                0x0000000040014ca4                _Z13GetUdpFifoRect
                0x0000000040014e28                _ZN9UDPPacket13GetDataBufferEv
                0x0000000040014fe8                _Z25RegisterUDPFifoWithNotifytP7os_fifoPFvS0_tE
                0x0000000040014d64                _ZN9UDPPacketC1EP11pool_buffer
                0x0000000040014e5c                _ZNK9UDPPacket11GetDataSizeEv
                0x0000000040015760                _Z15ProcessIDPacketR9UDPPacketi
                0x00000000400152cc                _ZN9UDPPacket11AddDataWordEt
                0x0000000040015dc4                _Z11process_udpP11pool_bufferP5IPPKTt
                0x0000000040015320                _ZN9UDPPacket8ValidateEv
                0x0000000040014e08                _ZNK9UDPPacket18GetDestinationPortEv
                0x00000000400151fc                _ZN9UDPPacket7AddDataEPKht
                0x00000000400150b0                _Z17UnregisterUDPFifot
                0x0000000040016080                _ZN9UDPPacketC1EP7os_fifom
                0x0000000040014e3c                _ZN9UDPPacket11SetDataSizeEt
                0x0000000040015178                _Z15FixIDDataPacketR9UDPPacketP15_InterfaceBlock
                0x0000000040014e84                _ZN9UDPPacket9ResetDataEv
                0x00000000400156cc                _ZN9UDPPacketD1Ev
                0x00000000400160e0                _ZN9UDPPacketC2EP7os_fifom
                0x0000000040015518                _ZN9UDPPacket14SendAndKeepViaEmmh
                0x0000000040014db0                _ZN9UDPPacket13SetSourcePortEt
                0x0000000040014dcc                _ZNK9UDPPacket13GetSourcePortEv
                0x00000000400151d4                _Z15FixIDDataPacketR9UDPPacketi
                0x000000004001571c                _ZN9UDPPacketC1Ev
                0x0000000040014ed8                _ZN9UDPPacket21GetDestinationAddressEv
 .text          0x0000000040016140      0x71c /Users/dciliske/nndk/lib/NetBurner.a(autoip.o)
                0x000000004001637c                _ZN12AutoIPClientC1Ei
                0x000000004001625c                _ZN12AutoIPClient4stopEv
                0x00000000400166a8                _ZN12AutoIPClient8arpCheckEv
                0x00000000400161cc                _ZN12AutoIPClient11getNextTickEv
                0x0000000040016504                _ZN12AutoIPClient8announceEv
                0x0000000040016180                _ZN12AutoIPClient16addressCollisionEv
                0x00000000400161bc                _ZN12AutoIPClient8getStateEv
                0x00000000400165e0                _ZN12AutoIPClient8startArpEv
                0x0000000040016804                _ZN12AutoIPClient14staticTimeTickEv
                0x0000000040016140                _ZN12AutoIPClient5startEv
                0x00000000400163f8                _ZN12AutoIPClientC2Ei
                0x00000000400161dc                _ZN12AutoIPClient9tickDelayEi
                0x0000000040016204                _ZN12AutoIPClient9negotiateEv
                0x0000000040016548                _ZN12AutoIPClient6setRNGEv
                0x0000000040016318                _ZN12AutoIPClientD2Ev
                0x0000000040016794                _ZN12AutoIPClient8timeTickEv
                0x0000000040016294                _ZN12AutoIPClient7restartEv
                0x0000000040016474                _Z18AddAutoIPInterfacei
                0x00000000400162b4                _ZN12AutoIPClientD1Ev
                0x00000000400165a4                _ZN12AutoIPClient17generateNewIPAddrEv
 .text          0x000000004001685c     0x1f9c /Users/dciliske/nndk/lib/NetBurner.a(dhcpc.o)
                0x0000000040016ad0                _Z13CompareChaddrPhS_
                0x0000000040017150                _ZN10DhcpObjectC1Ei
                0x0000000040018364                _ZN10DhcpObject11RestartDHCPEv
                0x0000000040017008                _ZN10DhcpObject9StopBOOTPEv
                0x0000000040016ff4                _ZN10DhcpObject14StopProcessingEv
                0x0000000040016994                _ZN11DHCPMessage10ResetBytesEv
                0x00000000400169fc                _ZN11DHCPMessage12SetRandomXidEv
                0x000000004001706c                _ZN10DhcpObjectD1Ev
                0x00000000400187b8                _ZN10DhcpObject15staticDHCPTimerEv
                0x0000000040016ab4                _ZN11DHCPMessage13GetOptionDataEh
                0x000000004001868c                _ZN10DhcpObject9RenewDHCPEv
                0x0000000040017750                _ZN11DHCPMessage13SendServerMsgEmi
                0x00000000400172f8                _ZN11DHCPMessage15MsgForInterfaceEi
                0x0000000040017c74                _ZN10DhcpObject8StopDHCPEv
                0x0000000040017ff0                _Z29All_GetDHCPAddressIfNecessaryb
                0x0000000040017ecc                _ZN10DhcpObject16ReTransmitPacketEm
                0x00000000400170dc                _ZN10DhcpObject19UpdateIPRuntimeVarsEh
                0x0000000040017fc0                _ZN10DhcpObject9StartDHCPEv
                0x00000000400170c8                _Z22SetDHCPDiscoverSecondsm
                0x0000000040018618                _ZN10DhcpObject16staticDHCPPacketEP11pool_buffer
                0x0000000040016b60                _Z14AddDhcpOptionsR11DHCPMessageRi
                0x0000000040017ccc                _ZN10DhcpObject18CreateDhcpRenewMsgER11DHCPMessage
                0x000000004001692c                _ZN11DHCPMessage11CreateReplyEmm
                0x0000000040016b0c                _Z12ValidDhcpMsgPh
                0x0000000040017224                _ZN10DhcpObjectC2Ei
                0x0000000040017010                _ZN10DhcpObjectD2Ev
                0x0000000040016cb8                _ZN10DhcpObject10DhcpConfigER11DHCPMessage
                0x0000000040017b80                _ZN10DhcpObject20CreateDhcpReleaseMsgER11DHCPMessage
                0x0000000040016fc8                _ZN10DhcpObject25GetRemainingDhcpLeaseTimeEv
                0x0000000040016a38                _ZN11DHCPMessage13GetOptionDataEhRi
                0x00000000400182cc                _Z25GetDHCPAddressIfNecessaryib
                0x0000000040017330                _ZN11DHCPMessageC1EPh
                0x0000000040018390                _Z13__restartDHCPP10DhcpObject
                0x00000000400186b8                _ZN10DhcpObject9DHCPTimerEv
                0x000000004001685c                _ZN11DHCPMessageC2Ev
                0x00000000400181a8                _Z14GetDHCPAddressi
                0x0000000040017358                _ZN11DHCPMessageC2EPh
                0x0000000040016f9c                _ZN10DhcpObject12GetDHCPStateEv
                0x0000000040016c18                _ZN10DhcpObject11BootpConfigER11DHCPMessage
                0x0000000040017f94                _ZN10DhcpObject10StartBOOTPEv
                0x0000000040017838                _Z21CreateDhcpDiscoverMsgR11DHCPMessagei
                0x00000000400177c4                _ZN11DHCPMessage7SendMsgEmi
                0x000000004001695c                _ZN11DHCPMessage12ClearOptionsEv
                0x0000000040016fac                _ZN10DhcpObject14ValidDhcpLeaseEv
                0x0000000040018398                _ZN10DhcpObject10DHCPPacketEP11pool_buffer
                0x0000000040017a2c                _ZN10DhcpObject14CreateBootpMsgER11DHCPMessage
                0x0000000040017380                _Z20CreateDhcpRequestMsgR11DHCPMessageS0_i
                0x00000000400168c4                _ZN11DHCPMessageC1Ev
                0x0000000040018660                _ZN10DhcpObject10RebindDHCPEv
 .text          0x00000000400187f8        0x0 /Users/dciliske/nndk/lib/NetBurner.a(defappname.o)
 .text          0x00000000400187f8      0x5f8 /Users/dciliske/nndk/lib/NetBurner.a(taskmon.o)
                0x0000000040018d30                _Z17ProcessTaskPacketR9UDPPacketi
                0x00000000400187f8                _Z17EnableTaskMonitorv
                0x000000004001880c                _Z18BufferDumpTCBStateP6os_tcb
 .text          0x0000000040018df0      0x538 /Users/dciliske/nndk/lib/NetBurner.a(autoupdate.o)
                0x0000000040019278                _Z23ProcessAutoUpdatePacketR9UDPPacket
                0x0000000040018fac                _Z6DoDataR9UDPPacket
                0x0000000040018df0                EnableAutoUpdate
                0x0000000040018e04                _Z8DoRebootv
                0x0000000040018e34                _Z9DoExecuteR9UDPPacketi
                0x000000004001909c                _Z7DoStartR9UDPPacket
 .text          0x0000000040019328       0xea /Users/dciliske/nndk/lib/NetBurner.a(nbsiprintf.o)
                0x0000000040019328                sniprintf
                0x0000000040019384                _Z11putstrcharsPvPKci
                0x000000004001935c                siprintf
 *fill*         0x0000000040019412        0x2 00
 .text          0x0000000040019414       0x26 /Users/dciliske/nndk/lib/NetBurner.a(new_ops.o)
                0x0000000040019414                _Znwm
 *fill*         0x000000004001943a        0x2 00
 .text          0x000000004001943c       0xbc /Users/dciliske/nndk/lib/MOD5441X.a(localio.o)
                0x000000004001943c                GetUartRecord
                0x0000000040019480                GetDefUart
                0x0000000040019494                LocalInByte
                0x00000000400194b0                LocalOutByte
                0x00000000400194e4                LocalCharAvail
 .text          0x00000000400194f8     0x2202 /Users/dciliske/nndk/lib/MOD5441X.a(serial.o)
                0x0000000040019524                _Z6WakeTxi
                0x00000000400194f8                _Z11FdSerialMapi
                0x000000004001a840                SerialClose
                0x0000000040019b14                _Z14fake_SER_7_ISRv
                0x000000004001b5fc                real_SER_5_ISR
                0x000000004001a7cc                SendBreak
                0x000000004001b004                OpenSerial
                0x000000004001a304                GetUartErrorReg
                0x0000000040019888                _Z14fake_SER_0_ISRv
                0x0000000040019b6c                SER_8_ISR
                0x0000000040019930                real_SER_1_ISR
                0x000000004001b63c                real_SER_4_ISR
                0x000000004001a54c                _Z15fShowSerialDataP7__sFILE
                0x000000004001b53c                real_SER_8_ISR
                0x0000000040019a6c                _Z14fake_SER_5_ISRv
                0x0000000040019ac4                SER_6_ISR
                0x0000000040019970                _Z14fake_SER_2_ISRv
                0x000000004001a47c                SerialSendComplete
                0x0000000040019c10                SerialEnableTxFlow
                0x0000000040019c58                SerialEnableRxFlow
                0x000000004001b57c                real_SER_7_ISR
                0x00000000400195b8                _Z8DoSerIsri
                0x000000004001a068                Serial485HalfDupMode
                0x000000004001b67c                real_SER_3_ISR
                0x0000000040019bc0                SER_9_ISR
                0x00000000400199c8                SER_3_ISR
                0x0000000040019bbc                _Z14fake_SER_9_ISRv
                0x0000000040019a70                SER_5_ISR
                0x000000004001b4c0                real_SER_0_ISR
                0x0000000040019e94                SerialEnableHwRxFlow
                0x000000004001ab20                serread
                0x000000004001ae40                _Z11BasePutCharih
                0x000000004001ab3c                _Z11BaseGetChari
                0x000000004001b6bc                real_SER_2_ISR
                0x0000000040019a1c                SER_4_ISR
                0x00000000400198e0                SER_1_ISR
                0x000000004001a934                serreadwto
                0x000000004001af64                _Z14InitializeMapsv
                0x000000004001988c                SER_0_ISR
                0x000000004001ad44                serwriteaddress
                0x0000000040019b18                SER_7_ISR
                0x000000004001b4fc                real_SER_9_ISR
                0x000000004001abfc                serwrite
                0x000000004001a4fc                _Z20SerialExpandRxBufferii
                0x000000004001a910                serexternalclose
                0x0000000040019ac0                _Z14fake_SER_6_ISRv
                0x0000000040019974                SER_2_ISR
                0x0000000040019a18                _Z14fake_SER_4_ISRv
                0x0000000040019b68                _Z14fake_SER_8_ISRv
                0x00000000400198dc                _Z14fake_SER_1_ISRv
                0x00000000400199c4                _Z14fake_SER_3_ISRv
                0x000000004001b5bc                real_SER_6_ISR
                0x0000000040019ca4                SerialEnableHwTxFlow
 *fill*         0x000000004001b6fa        0x2 00
 .text          0x000000004001b6fc     0x255e /Users/dciliske/nndk/lib/MOD5441X.a(ethernet.o)
                0x000000004001c9f0                _Z20AddEthernetInterfacev
                0x000000004001ba10                _Z9StopEnet0v
                0x000000004001d034                _ZN12EthernetVars17EthTransmitBufferEP11pool_buffer
                0x000000004001bb6c                _Z9EtherLinkv
                0x000000004001d3b8                real_txenetisr0
                0x000000004001d8e4                real_txenetisr1
                0x000000004001d1f0                _ZN12EthernetVars9TxIsrProcERVmmm
                0x000000004001b7fc                txenetisr1
                0x000000004001baec                _Z13EtherSpeed100v
                0x000000004001c6e4                _ZN12EthernetVars18InitializeEthernetEiiR6MACADR
                0x000000004001b9bc                _ZN12EthernetVars8StopEnetEv
                0x000000004001bbac                _Z10EtherLink0v
                0x000000004001d1d8                _Z18EthTransmitBuffer0P11pool_buffer
                0x000000004001d664                _ZN12EthernetVars15ProcessRxBufferEP11pool_buffer
                0x000000004001d420                _ZN12EthernetVars9RxIsrProcERVmmm
                0x000000004001d94c                real_rxenetisr1
                0x000000004001b8d8                _ZN12EthernetVars6GetMIIEh
                0x000000004001c164                _ZN12EthernetVars9ResetEnetEv
                0x000000004001b700                rxenetisr0
                0x000000004001b990                _ZN12EthernetVars6SetMIIEht
                0x000000004001b754                txenetisr0
                0x000000004001b8fc                _ZN12EthernetVars6SetMIIEhht
                0x000000004001bc5c                _ZN12EthernetVars14ResetEnetPart2Ev
                0x000000004001ccf4                _Z9EnablePHYv
                0x000000004001cc38                _ZN12EthernetVars9EnablePHYEv
                0x000000004001cbc0                _ZN12EthernetVars20ManualEthernetConfigEhhh
                0x000000004001ba24                _ZN12EthernetVars10DisablePHYEv
                0x000000004001bc10                _Z13EthMultifunc06MACADRh
                0x000000004001d87c                real_rxenetisr0
                0x000000004001b84c                _ZN12EthernetVars6GetMIIEhh
                0x000000004001b750                _Z15fake_txenetisr0v
                0x000000004001cd08                _ZN12EthernetVars19ProcessDuplexStatusEt
                0x000000004001bad8                _Z10DisablePHYv
                0x000000004001cb14                _ZN12EthernetVars13WarmEnetResetEv
                0x000000004001d9b4                _Z17Ether_ProcessTaskPv
                0x000000004001bb2c                _Z11EtherDuplexv
                0x000000004001b7f8                _Z15fake_txenetisr1v
                0x000000004001b7a4                _Z15fake_rxenetisr1v
                0x000000004001b6fc                _Z15fake_rxenetisr0v
                0x000000004001b7a8                rxenetisr1
 *fill*         0x000000004001dc5a        0x2 00
 .text          0x000000004001dc5c      0xc80 /Users/dciliske/nndk/lib/MOD5441X.a(etherprint.o)
                0x000000004001e04c                _ZN12EthernetVars14ShowLinkStatusEv
                0x000000004001e8c8                _Z5denetv
                0x000000004001dc98                _Z16ShowESWRegistersv
                0x000000004001e120                _ZN12EthernetVars7ShowMIIEhhPKct
                0x000000004001e444                _ZN12EthernetVars16ShowFECRegistersEv
                0x000000004001e190                _ZN12EthernetVars13ShowPhyterMIIEv
                0x000000004001dc70                _ZN12EthernetVars13EtherSpeed100Ev
                0x000000004001dc5c                _ZN12EthernetVars9EtherLinkEv
                0x000000004001dc84                _ZN12EthernetVars11EtherDuplexEv
                0x000000004001e8b4                _Z5dEnetv
                0x000000004001e870                DoDumpEnet
                0x000000004001dfc0                _Z10showbinarytt
 .text          0x000000004001e8dc      0x2c8 /Users/dciliske/nndk/lib/MOD5441X.a(emulticast.o)
                0x000000004001e91c                _ZN12EthernetVars18EthEnableMulticastE6MACADR
                0x000000004001e8dc                _Z15GetMultiCastCRC6MACADR
                0x000000004001ea58                _ZN12EthernetVars19EthDisableMulticastE6MACADR
 .text          0x000000004001eba4      0x2aa /Users/dciliske/nndk/lib/MOD5441X.a(ether2nd.o)
                0x000000004001ee08                _Z10EtherLink1v
                0x000000004001ee38                _Z9StopEnet1v
                0x000000004001ede4                _Z18EthTransmitBuffer1P11pool_buffer
                0x000000004001eba4                _Z14Add2ndEthernetv
                0x000000004001ed98                _Z13EthMultifunc16MACADRh
 *fill*         0x000000004001ee4e        0x2 00
 .text          0x000000004001ee50      0x6d4 /Users/dciliske/nndk/lib/MOD5441X.a(etherswitch.o)
                0x000000004001f1b4                eswlrnisr
                0x000000004001f1b0                _Z14fake_eswlrnisrv
                0x000000004001ee80                _Z11SetMacEntrymmm
                0x000000004001f108                _Z17fake_rxeswitchisrv
                0x000000004001ef3c                _Z14UpdateMacTableblPhjj
                0x000000004001f47c                real_txeswitchisr
                0x000000004001eeec                _Z9crc8_calcPh
                0x000000004001eeac                _Z13ClearMacTablev
                0x000000004001f10c                rxeswitchisr
                0x000000004001f204                real_eswlrnisr
                0x000000004001f15c                _Z17fake_txeswitchisrv
                0x000000004001f284                _Z15EtherSwitchInitv
                0x000000004001f160                txeswitchisr
                0x000000004001ee50                _Z11GetMacEntrymPmS_
                0x000000004001f4d0                real_rxeswitchisr
 .text          0x000000004001f524        0x0 /Users/dciliske/nndk/lib/MOD5441X.a(weak_autoenet_var.o)
 .text          0x000000004001f524      0x2b0 /Users/dciliske/nndk/lib/NetBurner.a(extraio.o)
                0x000000004001f554                _Z11ExpandWriteiPKci
                0x000000004001f764                GetExtraInterface
                0x000000004001f5f0                GetExtraFDwIntf
                0x000000004001f584                _Z11ExpandClosei
                0x000000004001f5b4                _Z10InitExtrasv
                0x000000004001f69c                GetExtraFD
                0x000000004001f524                _Z10ExpandReadiPci
                0x000000004001f798                GetFreeExtraFDCount
                0x000000004001f6b4                FreeExtraFd
                0x000000004001f6f8                GetExtraData
                0x000000004001f72c                GetExtraExtraData
 .text          0x000000004001f7d4      0x1f2 /Users/dciliske/nndk/lib/NetBurner.a(netrx.o)
                0x000000004001f7d4                _Z7NetDoRXP11pool_bufferti
 *fill*         0x000000004001f9c6        0x2 00
 .text          0x000000004001f9c8      0x172 /Users/dciliske/nndk/lib/NetBurner.a(multiconfig.o)
                0x000000004001f9c8                _Z16SetupIFConfigRecR15_InterfaceBlock
 *fill*         0x000000004001fb3a        0x2 00
 .text          0x000000004001fb3c      0xba0 /Applications/NetBurner/gcc-m68k/bin/../lib/gcc/m68k-elf/4.2.1/m5206e/libgcc.a(_double.o)
                0x000000004002063a                __cmpdf2
                0x000000004001fb9c                __adddf3
                0x0000000040020504                __negdf2
                0x0000000040020214                __divdf3
                0x0000000040020562                __cmpdf2_internal
                0x0000000040020038                __muldf3
                0x000000004001fb96                __subdf3
 .text          0x00000000400206dc       0x74 /Applications/NetBurner/gcc-m68k/bin/../lib/gcc/m68k-elf/4.2.1/m5206e/libgcc.a(_floatex.o)
                0x00000000400206e8                $_exception_handler
                0x00000000400206dc                __clear_sticky_bit
 .text          0x0000000040020750       0x7a /Applications/NetBurner/gcc-m68k/bin/../lib/gcc/m68k-elf/4.2.1/m5206e/libgcc.a(_fixunsdfsi.o)
                0x0000000040020750                __fixunsdfsi
 *fill*         0x00000000400207ca        0x2 00
 .text          0x00000000400207cc      0x4f6 /Applications/NetBurner/gcc-m68k/bin/../lib/gcc/m68k-elf/4.2.1/m5206e/libgcc.a(_udivdi3.o)
                0x00000000400207cc                __udivdi3
 *fill*         0x0000000040020cc2        0x2 00
 .text          0x0000000040020cc4      0x4f8 /Applications/NetBurner/gcc-m68k/bin/../lib/gcc/m68k-elf/4.2.1/m5206e/libgcc.a(_umoddi3.o)
                0x0000000040020cc4                __umoddi3
 .text          0x00000000400211bc      0x49c /Applications/NetBurner/gcc-m68k/bin/../lib/gcc/m68k-elf/4.2.1/m5206e/libgcc.a(fpgnulib.o)
                0x000000004002163e                __fixsfsi
                0x0000000040021324                __floatsidf
                0x00000000400213fa                __extendsfdf2
                0x00000000400212b2                __floatunsidf
                0x00000000400215be                __fixdfsi
                0x00000000400213e0                __floatsisf
                0x0000000040021496                __truncdfsf2
                0x00000000400211bc                __unordsf2
                0x00000000400213c6                __floatunsisf
                0x000000004002121e                __unorddf2
 .text          0x0000000040021658       0x22 /Applications/NetBurner/gcc-m68k/bin/../lib/gcc/m68k-elf/4.2.1/m5206e/libgcc.a(_gedf2.o)
                0x0000000040021658                __gedf2
 *fill*         0x000000004002167a        0x2 00
 .text          0x000000004002167c        0x0 /Applications/NetBurner/gcc-m68k/bin/../lib/gcc/m68k-elf/4.2.1/m5206e/libgcc.a(_clz.o)
 .text          0x000000004002167c       0x1e /Applications/NetBurner/gcc-m68k/bin/../lib/gcc/m68k-elf/4.2.1/../../../../m68k-elf/lib/m5206e/libc.a(lib_a-cxa_atexit.o)
                0x000000004002167c                __cxa_atexit
 *fill*         0x000000004002169a        0x2 00
 .text          0x000000004002169c        0xe /Applications/NetBurner/gcc-m68k/bin/../lib/gcc/m68k-elf/4.2.1/../../../../m68k-elf/lib/m5206e/libc.a(lib_a-errno.o)
                0x000000004002169c                __errno
 *fill*         0x00000000400216aa        0x2 00
 .text          0x00000000400216ac       0x24 /Applications/NetBurner/gcc-m68k/bin/../lib/gcc/m68k-elf/4.2.1/../../../../m68k-elf/lib/m5206e/libc.a(lib_a-fiprintf.o)
                0x00000000400216ac                fiprintf
 .text          0x00000000400216d0        0x0 /Applications/NetBurner/gcc-m68k/bin/../lib/gcc/m68k-elf/4.2.1/../../../../m68k-elf/lib/m5206e/libc.a(lib_a-impure.o)
 .text          0x00000000400216d0       0x32 /Applications/NetBurner/gcc-m68k/bin/../lib/gcc/m68k-elf/4.2.1/../../../../m68k-elf/lib/m5206e/libc.a(lib_a-malloc.o)
                0x00000000400216ea                malloc
                0x00000000400216d0                free
 *fill*         0x0000000040021702        0x2 00
 .text          0x0000000040021704      0x78c /Applications/NetBurner/gcc-m68k/bin/../lib/gcc/m68k-elf/4.2.1/../../../../m68k-elf/lib/m5206e/libc.a(lib_a-mallocr.o)
                0x0000000040021704                _malloc_r
 .text          0x0000000040021e90       0x8a /Applications/NetBurner/gcc-m68k/bin/../lib/gcc/m68k-elf/4.2.1/../../../../m68k-elf/lib/m5206e/libc.a(lib_a-puts.o)
                0x0000000040021e90                _puts_r
                0x0000000040021f04                puts
 *fill*         0x0000000040021f1a        0x2 00
 .text          0x0000000040021f1c       0x6c /Applications/NetBurner/gcc-m68k/bin/../lib/gcc/m68k-elf/4.2.1/../../../../m68k-elf/lib/m5206e/libc.a(lib_a-rand.o)
                0x0000000040021f34                rand
                0x0000000040021f1c                srand
 .text          0x0000000040021f88       0x4e /Applications/NetBurner/gcc-m68k/bin/../lib/gcc/m68k-elf/4.2.1/../../../../m68k-elf/lib/m5206e/libc.a(lib_a-rget.o)
                0x0000000040021fc2                __srget
                0x0000000040021f88                __srget_r
 *fill*         0x0000000040021fd6        0x2 00
 .text          0x0000000040021fd8      0x1ee /Applications/NetBurner/gcc-m68k/bin/../lib/gcc/m68k-elf/4.2.1/../../../../m68k-elf/lib/m5206e/libc.a(lib_a-setvbuf.o)
                0x0000000040021fd8                setvbuf
 *fill*         0x00000000400221c6        0x2 00
 .text          0x00000000400221c8       0x1a /Applications/NetBurner/gcc-m68k/bin/../lib/gcc/m68k-elf/4.2.1/../../../../m68k-elf/lib/m5206e/libc.a(lib_a-strlen.o)
                0x00000000400221c8                strlen
 *fill*         0x00000000400221e2        0x2 00
 .text          0x00000000400221e4     0x1010 /Applications/NetBurner/gcc-m68k/bin/../lib/gcc/m68k-elf/4.2.1/../../../../m68k-elf/lib/m5206e/libc.a(lib_a-vfiprintf.o)
                0x00000000400231d6                vfiprintf
                0x0000000040022228                _vfiprintf_r
 .text          0x00000000400231f4      0x124 /Applications/NetBurner/gcc-m68k/bin/../lib/gcc/m68k-elf/4.2.1/../../../../m68k-elf/lib/m5206e/libc.a(lib_a-wbuf.o)
                0x00000000400231f4                __swbuf_r
                0x00000000400232fe                __swbuf
 .text          0x0000000040023318       0x7c /Applications/NetBurner/gcc-m68k/bin/../lib/gcc/m68k-elf/4.2.1/../../../../m68k-elf/lib/m5206e/libc.a(lib_a-wcrtomb.o)
                0x0000000040023318                _wcrtomb_r
                0x0000000040023378                wcrtomb
 .text          0x0000000040023394      0x130 /Applications/NetBurner/gcc-m68k/bin/../lib/gcc/m68k-elf/4.2.1/../../../../m68k-elf/lib/m5206e/libc.a(lib_a-wcsrtombs.o)
                0x0000000040023394                _wcsrtombs_r
                0x00000000400234a2                wcsrtombs
 .text          0x00000000400234c4      0x452 /Applications/NetBurner/gcc-m68k/bin/../lib/gcc/m68k-elf/4.2.1/../../../../m68k-elf/lib/m5206e/libc.a(lib_a-wctomb_r.o)
                0x00000000400234c4                _wctomb_r
 *fill*         0x0000000040023916        0x2 00
 .text          0x0000000040023918      0x130 /Applications/NetBurner/gcc-m68k/bin/../lib/gcc/m68k-elf/4.2.1/../../../../m68k-elf/lib/m5206e/libc.a(lib_a-wsetup.o)
                0x0000000040023918                __swsetup
 .text          0x0000000040023a48       0xe8 /Applications/NetBurner/gcc-m68k/bin/../lib/gcc/m68k-elf/4.2.1/../../../../m68k-elf/lib/m5206e/libc.a(lib_a-__atexit.o)
                0x0000000040023a48                __register_exitproc
 .text          0x0000000040023b30      0x198 /Applications/NetBurner/gcc-m68k/bin/../lib/gcc/m68k-elf/4.2.1/../../../../m68k-elf/lib/m5206e/libc.a(lib_a-fflush.o)
                0x0000000040023b30                fflush
 .text          0x0000000040023cc8      0x25e /Applications/NetBurner/gcc-m68k/bin/../lib/gcc/m68k-elf/4.2.1/../../../../m68k-elf/lib/m5206e/libc.a(lib_a-findfp.o)
                0x0000000040023d22                __sinit
                0x0000000040023dda                __sfmoreglue
                0x0000000040023dc8                _cleanup
                0x0000000040023dae                _cleanup_r
                0x0000000040023e48                __sfp
 *fill*         0x0000000040023f26        0x2 00
 .text          0x0000000040023f28      0x422 /Applications/NetBurner/gcc-m68k/bin/../lib/gcc/m68k-elf/4.2.1/../../../../m68k-elf/lib/m5206e/libc.a(lib_a-freer.o)
                0x0000000040024018                _free_r
                0x0000000040023f28                _malloc_trim_r
 *fill*         0x000000004002434a        0x2 00
 .text          0x000000004002434c      0x394 /Applications/NetBurner/gcc-m68k/bin/../lib/gcc/m68k-elf/4.2.1/../../../../m68k-elf/lib/m5206e/libc.a(lib_a-fvwrite.o)
                0x000000004002434c                __sfvwrite_r
 .text          0x00000000400246e0       0xe4 /Applications/NetBurner/gcc-m68k/bin/../lib/gcc/m68k-elf/4.2.1/../../../../m68k-elf/lib/m5206e/libc.a(lib_a-fwalk.o)
                0x00000000400246e0                _fwalk
                0x0000000040024750                _fwalk_reent
 .text          0x00000000400247c4       0xa6 /Applications/NetBurner/gcc-m68k/bin/../lib/gcc/m68k-elf/4.2.1/../../../../m68k-elf/lib/m5206e/libc.a(lib_a-locale.o)
                0x00000000400247f2                _setlocale_r
                0x00000000400247c4                __locale_charset
                0x00000000400247d2                _localeconv_r
                0x0000000040024852                setlocale
                0x00000000400247e0                localeconv
 *fill*         0x000000004002486a        0x2 00
 .text          0x000000004002486c      0x178 /Applications/NetBurner/gcc-m68k/bin/../lib/gcc/m68k-elf/4.2.1/../../../../m68k-elf/lib/m5206e/libc.a(lib_a-makebuf.o)
                0x000000004002486c                __smakebuf
 .text          0x00000000400249e4       0xd2 /Applications/NetBurner/gcc-m68k/bin/../lib/gcc/m68k-elf/4.2.1/../../../../m68k-elf/lib/m5206e/libc.a(lib_a-memchr.o)
                0x00000000400249e4                memchr
 *fill*         0x0000000040024ab6        0x2 00
 .text          0x0000000040024ab8       0xb6 /Applications/NetBurner/gcc-m68k/bin/../lib/gcc/m68k-elf/4.2.1/../../../../m68k-elf/lib/m5206e/libc.a(lib_a-memmove.o)
                0x0000000040024ab8                memmove
 *fill*         0x0000000040024b6e        0x2 00
 .text          0x0000000040024b70      0x4da /Applications/NetBurner/gcc-m68k/bin/../lib/gcc/m68k-elf/4.2.1/../../../../m68k-elf/lib/m5206e/libc.a(lib_a-reallocr.o)
                0x0000000040024b70                _realloc_r
 *fill*         0x000000004002504a        0x2 00
 .text          0x000000004002504c      0x21c /Applications/NetBurner/gcc-m68k/bin/../lib/gcc/m68k-elf/4.2.1/../../../../m68k-elf/lib/m5206e/libc.a(lib_a-refill.o)
                0x0000000040025070                __srefill_r
 .text          0x0000000040025268      0x162 /Applications/NetBurner/gcc-m68k/bin/../lib/gcc/m68k-elf/4.2.1/../../../../m68k-elf/lib/m5206e/libc.a(lib_a-stdio.o)
                0x0000000040025286                __sseek
                0x0000000040025378                __sread
                0x0000000040025268                __sclose
                0x00000000400252e8                __swrite
 *fill*         0x00000000400253ca        0x2 00
 .text          0x00000000400253cc       0x70 /Applications/NetBurner/gcc-m68k/bin/../lib/gcc/m68k-elf/4.2.1/../../../../m68k-elf/lib/m5206e/libc.a(lib_a-strcmp.o)
                0x00000000400253cc                strcmp
 .text          0x000000004002543c       0x3e /Applications/NetBurner/gcc-m68k/bin/../lib/gcc/m68k-elf/4.2.1/../../../../m68k-elf/lib/m5206e/libc.a(lib_a-writer.o)
                0x000000004002543c                _write_r
 *fill*         0x000000004002547a        0x2 00
 .text          0x000000004002547c       0x32 /Applications/NetBurner/gcc-m68k/bin/../lib/gcc/m68k-elf/4.2.1/../../../../m68k-elf/lib/m5206e/libc.a(lib_a-closer.o)
                0x000000004002547c                _close_r
 *fill*         0x00000000400254ae        0x2 00
 .text          0x00000000400254b0       0xfe /Applications/NetBurner/gcc-m68k/bin/../lib/gcc/m68k-elf/4.2.1/../../../../m68k-elf/lib/m5206e/libc.a(lib_a-fclose.o)
                0x00000000400254b0                _fclose_r
                0x0000000040025598                fclose
 *fill*         0x00000000400255ae        0x2 00
 .text          0x00000000400255b0       0x36 /Applications/NetBurner/gcc-m68k/bin/../lib/gcc/m68k-elf/4.2.1/../../../../m68k-elf/lib/m5206e/libc.a(lib_a-fstatr.o)
                0x00000000400255b0                _fstat_r
 *fill*         0x00000000400255e6        0x2 00
 .text          0x00000000400255e8       0x3e /Applications/NetBurner/gcc-m68k/bin/../lib/gcc/m68k-elf/4.2.1/../../../../m68k-elf/lib/m5206e/libc.a(lib_a-lseekr.o)
                0x00000000400255e8                _lseek_r
 *fill*         0x0000000040025626        0x2 00
 .text          0x0000000040025628       0x3e /Applications/NetBurner/gcc-m68k/bin/../lib/gcc/m68k-elf/4.2.1/../../../../m68k-elf/lib/m5206e/libc.a(lib_a-readr.o)
                0x0000000040025628                _read_r
 *fill*         0x0000000040025666        0x2 00
 .text          0x0000000040025668       0x72 /Applications/NetBurner/gcc-m68k/bin/../lib/gcc/m68k-elf/4.2.1/m5206e/libgcc.a(_muldi3.o)
                0x0000000040025668                __muldi3
 *fill*         0x00000000400256da        0x2 00
 .text          0x00000000400256dc       0x32 /Applications/NetBurner/gcc-m68k/bin/../lib/gcc/m68k-elf/4.2.1/m5206e/crtend.o
                0x0000000040025710                . = ALIGN (0x10)
 *fill*         0x000000004002570e        0x2 00
 *(.text.*)
                0x0000000040025710                . = ALIGN (0x10)
 *(.eh_frame)
 .eh_frame      0x0000000040025710        0x0 /Applications/NetBurner/gcc-m68k/bin/../lib/gcc/m68k-elf/4.2.1/m5206e/crtbegin.o
 .eh_frame      0x0000000040025710       0x40 /Applications/NetBurner/gcc-m68k/bin/../lib/gcc/m68k-elf/4.2.1/m5206e/libgcc.a(_udivdi3.o)
 .eh_frame      0x0000000040025750       0x2c /Applications/NetBurner/gcc-m68k/bin/../lib/gcc/m68k-elf/4.2.1/m5206e/libgcc.a(_umoddi3.o)
                                         0x40 (size before relaxing)
 .eh_frame      0x000000004002577c        0x4 /Applications/NetBurner/gcc-m68k/bin/../lib/gcc/m68k-elf/4.2.1/m5206e/crtend.o
                0x0000000040025780                . = ALIGN (0x10)
 *fill*         0x0000000040025780        0x0 00
 *(.gnu.linkonce.t.*)
                0x0000000040025780                . = ALIGN (0x4)
                0x0000000040025780                __CTOR_LIST__ = .
 *(.ctors)
 .ctors         0x0000000040025780        0x4 /Applications/NetBurner/gcc-m68k/bin/../lib/gcc/m68k-elf/4.2.1/m5206e/crtbegin.o
 .ctors         0x0000000040025784        0x4 ./main.o
 .ctors         0x0000000040025788        0x4 /Users/dciliske/nndk/lib/NetBurner.a(tcp.o)
 .ctors         0x000000004002578c        0x4 /Users/dciliske/nndk/lib/NetBurner.a(ip.o)
 .ctors         0x0000000040025790        0x4 /Users/dciliske/nndk/lib/NetBurner.a(buffers.o)
 .ctors         0x0000000040025794        0x4 /Users/dciliske/nndk/lib/MOD5441X.a(serial.o)
 .ctors         0x0000000040025798        0x4 /Applications/NetBurner/gcc-m68k/bin/../lib/gcc/m68k-elf/4.2.1/m5206e/crtend.o
                0x000000004002579c                __CTOR_END__ = .
                0x000000004002579c        0x4 LONG 0x0
                0x00000000400257a0                __CTOR_END__ = .
                0x00000000400257a0                __DTOR_LIST__ = .
                0x00000000400257a0                ___DTOR_LIST__ = .
                0x00000000400257a0        0x4 LONG 0x2 (((__DTOR_END__ - __DTOR_LIST__) / 0x4) - 0x2)
 *(.dtors)
 .dtors         0x00000000400257a4        0x4 /Applications/NetBurner/gcc-m68k/bin/../lib/gcc/m68k-elf/4.2.1/m5206e/crtbegin.o
 .dtors         0x00000000400257a8        0x4 /Applications/NetBurner/gcc-m68k/bin/../lib/gcc/m68k-elf/4.2.1/m5206e/crtend.o
                0x00000000400257ac        0x4 LONG 0x0
                0x00000000400257b0                __DTOR_END__ = .
 *(.rodata)
 .rodata        0x00000000400257b0        0xf ./main.o
 .rodata        0x00000000400257bf      0x108 /Users/dciliske/nndk/lib/NetBurner.a(ucos.o)
                0x00000000400257c7                FAKE_OSUnMapTbl
                0x00000000400257bf                FAKE_OSMapTbl
 .rodata        0x00000000400258c7        0xd /Users/dciliske/nndk/lib/NetBurner.a(tcp.o)
 .rodata        0x00000000400258d4       0x26 /Users/dciliske/nndk/lib/NetBurner.a(release_tagdata.o)
                0x00000000400258d8                rtag_array
                0x00000000400258d4                rtag_len
 .rodata        0x00000000400258fa       0xb8 /Users/dciliske/nndk/lib/NetBurner.a(utils.o)
 *fill*         0x00000000400259b2        0xe 00
 .rodata        0x00000000400259c0        0x4 /Users/dciliske/nndk/lib/NetBurner.a(buffers.o)
 .rodata        0x00000000400259c4        0x2 /Users/dciliske/nndk/lib/NetBurner.a(udp.o)
 .rodata        0x00000000400259c6       0x50 /Users/dciliske/nndk/lib/MOD5441X.a(serial.o)
 .rodata        0x0000000040025a16      0x400 /Users/dciliske/nndk/lib/MOD5441X.a(emulticast.o)
 .rodata        0x0000000040025e16        0x1 /Users/dciliske/nndk/lib/MOD5441X.a(weak_autoenet_var.o)
                0x0000000040025e16                bAutomatic2ndEther
 .rodata        0x0000000040025e17      0x100 /Applications/NetBurner/gcc-m68k/bin/../lib/gcc/m68k-elf/4.2.1/m5206e/libgcc.a(_clz.o)
                0x0000000040025e17                __clz_tab
 *fill*         0x0000000040025f17        0x1 00
 .rodata        0x0000000040025f18        0x4 /Applications/NetBurner/gcc-m68k/bin/../lib/gcc/m68k-elf/4.2.1/../../../../m68k-elf/lib/m5206e/libc.a(lib_a-impure.o)
                0x0000000040025f18                _global_impure_ptr
 .rodata        0x0000000040025f1c       0x20 /Applications/NetBurner/gcc-m68k/bin/../lib/gcc/m68k-elf/4.2.1/../../../../m68k-elf/lib/m5206e/libc.a(lib_a-vfiprintf.o)
 .rodata        0x0000000040025f3c       0x34 /Applications/NetBurner/gcc-m68k/bin/../lib/gcc/m68k-elf/4.2.1/../../../../m68k-elf/lib/m5206e/libc.a(lib_a-locale.o)
 *(.rodata.*)
 .rodata.str1.1
                0x0000000040025f70       0x30 ./main.o
 .rodata.str1.1
                0x0000000040025fa0        0x9 ./stepper.o
 .rodata.str1.1
                0x0000000040025fa9        0x9 /Users/dciliske/nndk/lib/MOD5441X.a(bsp.o)
 .rodata.str1.1
                0x0000000040025fb2       0xed /Users/dciliske/nndk/lib/NetBurner.a(ucos.o)
 .rodata.str1.1
                0x000000004002609f      0x167 /Users/dciliske/nndk/lib/NetBurner.a(ucosmain.o)
                                        0x169 (size before relaxing)
 .rodata.str1.1
                0x0000000040026206        0x3 /Users/dciliske/nndk/lib/NetBurner.a(fileio.o)
                                          0x6 (size before relaxing)
 .rodata.str1.1
                0x0000000040026209        0x5 /Users/dciliske/nndk/lib/NetBurner.a(main.o)
 .rodata.str1.1
                0x000000004002620e      0x38f /Users/dciliske/nndk/lib/NetBurner.a(tcp.o)
                                        0x392 (size before relaxing)
 .rodata.str1.1
                0x000000004002659d      0x529 /Users/dciliske/nndk/lib/NetBurner.a(smarttrap.o)
                                        0x540 (size before relaxing)
 .rodata.str1.1
                0x0000000040026ac6       0x37 /Users/dciliske/nndk/lib/NetBurner.a(nbiprintf.o)
                                         0x41 (size before relaxing)
 .rodata.str1.1
                0x0000000040026afd       0xc9 /Users/dciliske/nndk/lib/NetBurner.a(system.o)
                                         0xcd (size before relaxing)
 .rodata.str1.1
                0x0000000040026bc6      0x177 /Users/dciliske/nndk/lib/NetBurner.a(utils.o)
                                        0x17b (size before relaxing)
 .rodata.str1.1
                0x0000000040026d3d      0x212 /Users/dciliske/nndk/lib/NetBurner.a(ip.o)
                                        0x217 (size before relaxing)
 .rodata.str1.1
                0x0000000040026f4f       0x68 /Users/dciliske/nndk/lib/NetBurner.a(buffers.o)
                                         0x70 (size before relaxing)
 .rodata.str1.1
                0x0000000040026fb7       0x50 /Users/dciliske/nndk/lib/NetBurner.a(arp.o)
 .rodata.str1.1
                0x0000000040027007       0x18 /Users/dciliske/nndk/lib/NetBurner.a(udp.o)
 .rodata.str1.1
                0x000000004002701f       0x16 /Users/dciliske/nndk/lib/NetBurner.a(dhcpc.o)
                                         0x21 (size before relaxing)
 .rodata.str1.1
                0x0000000040027035        0x8 /Users/dciliske/nndk/lib/NetBurner.a(defappname.o)
 .rodata.str1.1
                0x000000004002703d       0x84 /Users/dciliske/nndk/lib/NetBurner.a(taskmon.o)
                                         0xb9 (size before relaxing)
 .rodata.str1.1
                0x00000000400270c1      0x15a /Users/dciliske/nndk/lib/MOD5441X.a(serial.o)
 .rodata.str1.1
                0x000000004002721b        0xe /Users/dciliske/nndk/lib/MOD5441X.a(ethernet.o)
 .rodata.str1.1
                0x0000000040027229      0x44e /Users/dciliske/nndk/lib/MOD5441X.a(etherprint.o)
                                        0x497 (size before relaxing)
 .rodata.str1.1
                0x0000000040027677        0xa /Users/dciliske/nndk/lib/MOD5441X.a(ether2nd.o)
 .rodata.str1.1
                0x0000000040027681        0x2 /Applications/NetBurner/gcc-m68k/bin/../lib/gcc/m68k-elf/4.2.1/../../../../m68k-elf/lib/m5206e/libc.a(lib_a-impure.o)
 .rodata.str1.1
                0x0000000000000000        0x2 /Applications/NetBurner/gcc-m68k/bin/../lib/gcc/m68k-elf/4.2.1/../../../../m68k-elf/lib/m5206e/libc.a(lib_a-puts.o)
 .rodata.str1.1
                0x0000000040027683       0x3c /Applications/NetBurner/gcc-m68k/bin/../lib/gcc/m68k-elf/4.2.1/../../../../m68k-elf/lib/m5206e/libc.a(lib_a-vfiprintf.o)
                                         0x43 (size before relaxing)
 .rodata.str1.1
                0x00000000400276bf       0x1d /Applications/NetBurner/gcc-m68k/bin/../lib/gcc/m68k-elf/4.2.1/../../../../m68k-elf/lib/m5206e/libc.a(lib_a-wctomb_r.o)
 .rodata.str1.1
                0x00000000400276dc        0xb /Applications/NetBurner/gcc-m68k/bin/../lib/gcc/m68k-elf/4.2.1/../../../../m68k-elf/lib/m5206e/libc.a(lib_a-locale.o)
                                         0x10 (size before relaxing)
 *(.gnu.linkonce.*)
 *(.gcc_except_table)
                0x00000000400276e8                . = ALIGN (0x4)
 *fill*         0x00000000400276e7        0x1 00
                0x00000000400276e8                __INIT_SECTION__ = .
                0x00000000400276e8        0x4 LONG 0x4e560000
 *(.init)
 .init          0x00000000400276ec        0x6 /Applications/NetBurner/gcc-m68k/bin/../lib/gcc/m68k-elf/4.2.1/m5206e/crtbegin.o
 .init          0x00000000400276f2        0x6 /Applications/NetBurner/gcc-m68k/bin/../lib/gcc/m68k-elf/4.2.1/m5206e/crtend.o
                0x00000000400276f8        0x2 SHORT 0x4e5e
                0x00000000400276fa        0x2 SHORT 0x4e75
                0x00000000400276fc                . = ALIGN (0x4)
                0x00000000400276fc                __FINI_SECTION__ = .
                0x00000000400276fc        0x4 LONG 0x4e560000
 *(.fini)
 .fini          0x0000000040027700        0x6 /Applications/NetBurner/gcc-m68k/bin/../lib/gcc/m68k-elf/4.2.1/m5206e/crtbegin.o
                0x0000000040027706        0x2 SHORT 0x4e5e
                0x0000000040027708        0x2 SHORT 0x4e75
 *(.lit)
                0x0000000040027710                . = ALIGN (0x10)
 *fill*         0x000000004002770a        0x6 00
                0x0000000040027710                _etext = .
                0x0000000040027710                etext = .

.data           0x0000000040027710      0x874
                0x0000000040027710                copy_start = .
 *(.shdata)
 *(.data)
 .data          0x0000000040027710        0x4 /Applications/NetBurner/gcc-m68k/bin/../lib/gcc/m68k-elf/4.2.1/../../../../m68k-elf/lib/m5206e/nb-crt0.o
 .data          0x0000000040027714        0x8 /Applications/NetBurner/gcc-m68k/bin/../lib/gcc/m68k-elf/4.2.1/m5206e/crtbegin.o
                0x0000000040027714                __dso_handle
 .data          0x000000004002771c       0x16 ./main.o
                0x000000004002771c                stepper
 *fill*         0x0000000040027732        0x2 00
 .data          0x0000000040027734        0x0 ./stepper.o
 .data          0x0000000040027734        0x4 /Users/dciliske/nndk/lib/MOD5441X.a(bsp.o)
                0x0000000040027734                PlatformName
 .data          0x0000000040027738        0x0 /Users/dciliske/nndk/lib/MOD5441X.a(flash.o)
 .data          0x0000000040027738        0x0 /Users/dciliske/nndk/lib/MOD5441X.a(pins.o)
 .data          0x0000000040027738        0x0 /Users/dciliske/nndk/lib/NetBurner.a(ucosmcfa.o)
 .data          0x0000000040027738        0x0 /Users/dciliske/nndk/lib/NetBurner.a(software_init.o)
 .data          0x0000000040027738        0x0 /Users/dciliske/nndk/lib/NetBurner.a(ucos.o)
 .data          0x0000000040027738        0x0 /Users/dciliske/nndk/lib/NetBurner.a(debugtrap.o)
 .data          0x0000000040027738        0x0 /Users/dciliske/nndk/lib/NetBurner.a(ucosmain.o)
 .data          0x0000000040027738        0x0 /Users/dciliske/nndk/lib/NetBurner.a(fileio.o)
 .data          0x0000000040027738        0x0 /Users/dciliske/nndk/lib/NetBurner.a(main.o)
 .data          0x0000000040027738        0x0 /Users/dciliske/nndk/lib/NetBurner.a(tcp.o)
 .data          0x0000000040027738        0x0 /Users/dciliske/nndk/lib/NetBurner.a(iosys.o)
 .data          0x0000000040027738        0x0 /Users/dciliske/nndk/lib/NetBurner.a(netinterface.o)
 .data          0x0000000040027738        0x0 /Users/dciliske/nndk/lib/NetBurner.a(smarttrap.o)
 .data          0x0000000040027738        0x0 /Users/dciliske/nndk/lib/NetBurner.a(device.o)
 .data          0x0000000040027738        0x0 /Users/dciliske/nndk/lib/NetBurner.a(release_tag.o)
 .data          0x0000000040027738        0x0 /Users/dciliske/nndk/lib/NetBurner.a(release_tagdata.o)
 .data          0x0000000040027738        0x0 /Users/dciliske/nndk/lib/NetBurner.a(init.o)
 .data          0x0000000040027738        0x8 /Users/dciliske/nndk/lib/NetBurner.a(nbiprintf.o)
                0x000000004002773c                k_zeros
                0x0000000040027738                k_spaces
 .data          0x0000000040027740        0x0 /Users/dciliske/nndk/lib/NetBurner.a(ucosmcfc.o)
 .data          0x0000000040027740        0x0 /Users/dciliske/nndk/lib/NetBurner.a(system.o)
 .data          0x0000000040027740        0x0 /Users/dciliske/nndk/lib/NetBurner.a(utils.o)
 .data          0x0000000040027740        0x0 /Users/dciliske/nndk/lib/NetBurner.a(ip.o)
 .data          0x0000000040027740        0x0 /Users/dciliske/nndk/lib/NetBurner.a(buffers.o)
 .data          0x0000000040027740        0x0 /Users/dciliske/nndk/lib/NetBurner.a(arp.o)
 .data          0x0000000040027740        0x0 /Users/dciliske/nndk/lib/NetBurner.a(udp.o)
 .data          0x0000000040027740        0x0 /Users/dciliske/nndk/lib/NetBurner.a(autoip.o)
 .data          0x0000000040027740        0x0 /Users/dciliske/nndk/lib/NetBurner.a(dhcpc.o)
 .data          0x0000000040027740        0x4 /Users/dciliske/nndk/lib/NetBurner.a(defappname.o)
                0x0000000040027740                AppName
 .data          0x0000000040027744        0x0 /Users/dciliske/nndk/lib/NetBurner.a(taskmon.o)
 .data          0x0000000040027744        0x0 /Users/dciliske/nndk/lib/NetBurner.a(autoupdate.o)
 .data          0x0000000040027744        0x0 /Users/dciliske/nndk/lib/NetBurner.a(nbsiprintf.o)
 .data          0x0000000040027744        0x0 /Users/dciliske/nndk/lib/NetBurner.a(new_ops.o)
 .data          0x0000000040027744        0x0 /Users/dciliske/nndk/lib/MOD5441X.a(localio.o)
 .data          0x0000000040027744        0x0 /Users/dciliske/nndk/lib/MOD5441X.a(serial.o)
 .data          0x0000000040027744        0x2 /Users/dciliske/nndk/lib/MOD5441X.a(ethernet.o)
                0x0000000040027744                wait
 *fill*         0x0000000040027746        0x2 00
 .data          0x0000000040027748        0x0 /Users/dciliske/nndk/lib/MOD5441X.a(etherprint.o)
 .data          0x0000000040027748        0x0 /Users/dciliske/nndk/lib/MOD5441X.a(emulticast.o)
 .data          0x0000000040027748        0x0 /Users/dciliske/nndk/lib/MOD5441X.a(ether2nd.o)
 .data          0x0000000040027748        0x0 /Users/dciliske/nndk/lib/MOD5441X.a(etherswitch.o)
 .data          0x0000000040027748        0x0 /Users/dciliske/nndk/lib/MOD5441X.a(weak_autoenet_var.o)
 .data          0x0000000040027748        0x0 /Users/dciliske/nndk/lib/NetBurner.a(extraio.o)
 .data          0x0000000040027748        0x0 /Users/dciliske/nndk/lib/NetBurner.a(netrx.o)
 .data          0x0000000040027748        0x0 /Users/dciliske/nndk/lib/NetBurner.a(multiconfig.o)
 .data          0x0000000040027748        0x0 /Applications/NetBurner/gcc-m68k/bin/../lib/gcc/m68k-elf/4.2.1/m5206e/libgcc.a(_double.o)
 .data          0x0000000040027748       0x1c /Applications/NetBurner/gcc-m68k/bin/../lib/gcc/m68k-elf/4.2.1/m5206e/libgcc.a(_floatex.o)
                0x0000000040027748                _fpCCR
 .data          0x0000000040027764        0x0 /Applications/NetBurner/gcc-m68k/bin/../lib/gcc/m68k-elf/4.2.1/m5206e/libgcc.a(_fixunsdfsi.o)
 .data          0x0000000040027764        0x0 /Applications/NetBurner/gcc-m68k/bin/../lib/gcc/m68k-elf/4.2.1/m5206e/libgcc.a(_udivdi3.o)
 .data          0x0000000040027764        0x0 /Applications/NetBurner/gcc-m68k/bin/../lib/gcc/m68k-elf/4.2.1/m5206e/libgcc.a(_umoddi3.o)
 .data          0x0000000040027764        0x0 /Applications/NetBurner/gcc-m68k/bin/../lib/gcc/m68k-elf/4.2.1/m5206e/libgcc.a(fpgnulib.o)
 .data          0x0000000040027764        0x0 /Applications/NetBurner/gcc-m68k/bin/../lib/gcc/m68k-elf/4.2.1/m5206e/libgcc.a(_gedf2.o)
 .data          0x0000000040027764        0x0 /Applications/NetBurner/gcc-m68k/bin/../lib/gcc/m68k-elf/4.2.1/m5206e/libgcc.a(_clz.o)
 .data          0x0000000040027764        0x0 /Applications/NetBurner/gcc-m68k/bin/../lib/gcc/m68k-elf/4.2.1/../../../../m68k-elf/lib/m5206e/libc.a(lib_a-cxa_atexit.o)
 .data          0x0000000040027764        0x0 /Applications/NetBurner/gcc-m68k/bin/../lib/gcc/m68k-elf/4.2.1/../../../../m68k-elf/lib/m5206e/libc.a(lib_a-errno.o)
 .data          0x0000000040027764        0x0 /Applications/NetBurner/gcc-m68k/bin/../lib/gcc/m68k-elf/4.2.1/../../../../m68k-elf/lib/m5206e/libc.a(lib_a-fiprintf.o)
 .data          0x0000000040027764      0x3f6 /Applications/NetBurner/gcc-m68k/bin/../lib/gcc/m68k-elf/4.2.1/../../../../m68k-elf/lib/m5206e/libc.a(lib_a-impure.o)
                0x0000000040027764                _impure_ptr
 *fill*         0x0000000040027b5a        0x2 00
 .data          0x0000000040027b5c        0x0 /Applications/NetBurner/gcc-m68k/bin/../lib/gcc/m68k-elf/4.2.1/../../../../m68k-elf/lib/m5206e/libc.a(lib_a-malloc.o)
 .data          0x0000000040027b5c      0x410 /Applications/NetBurner/gcc-m68k/bin/../lib/gcc/m68k-elf/4.2.1/../../../../m68k-elf/lib/m5206e/libc.a(lib_a-mallocr.o)
                0x0000000040027f68                __malloc_sbrk_base
                0x0000000040027b5c                __malloc_av_
                0x0000000040027f64                __malloc_trim_threshold
 .data          0x0000000040027f6c        0x0 /Applications/NetBurner/gcc-m68k/bin/../lib/gcc/m68k-elf/4.2.1/../../../../m68k-elf/lib/m5206e/libc.a(lib_a-puts.o)
 .data          0x0000000040027f6c        0x0 /Applications/NetBurner/gcc-m68k/bin/../lib/gcc/m68k-elf/4.2.1/../../../../m68k-elf/lib/m5206e/libc.a(lib_a-rand.o)
 .data          0x0000000040027f6c        0x0 /Applications/NetBurner/gcc-m68k/bin/../lib/gcc/m68k-elf/4.2.1/../../../../m68k-elf/lib/m5206e/libc.a(lib_a-rget.o)
 .data          0x0000000040027f6c        0x0 /Applications/NetBurner/gcc-m68k/bin/../lib/gcc/m68k-elf/4.2.1/../../../../m68k-elf/lib/m5206e/libc.a(lib_a-setvbuf.o)
 .data          0x0000000040027f6c        0x0 /Applications/NetBurner/gcc-m68k/bin/../lib/gcc/m68k-elf/4.2.1/../../../../m68k-elf/lib/m5206e/libc.a(lib_a-strlen.o)
 .data          0x0000000040027f6c        0x0 /Applications/NetBurner/gcc-m68k/bin/../lib/gcc/m68k-elf/4.2.1/../../../../m68k-elf/lib/m5206e/libc.a(lib_a-vfiprintf.o)
 .data          0x0000000040027f6c        0x0 /Applications/NetBurner/gcc-m68k/bin/../lib/gcc/m68k-elf/4.2.1/../../../../m68k-elf/lib/m5206e/libc.a(lib_a-wbuf.o)
 .data          0x0000000040027f6c        0x0 /Applications/NetBurner/gcc-m68k/bin/../lib/gcc/m68k-elf/4.2.1/../../../../m68k-elf/lib/m5206e/libc.a(lib_a-wcrtomb.o)
 .data          0x0000000040027f6c        0x0 /Applications/NetBurner/gcc-m68k/bin/../lib/gcc/m68k-elf/4.2.1/../../../../m68k-elf/lib/m5206e/libc.a(lib_a-wcsrtombs.o)
 .data          0x0000000040027f6c        0x0 /Applications/NetBurner/gcc-m68k/bin/../lib/gcc/m68k-elf/4.2.1/../../../../m68k-elf/lib/m5206e/libc.a(lib_a-wctomb_r.o)
 .data          0x0000000040027f6c        0x0 /Applications/NetBurner/gcc-m68k/bin/../lib/gcc/m68k-elf/4.2.1/../../../../m68k-elf/lib/m5206e/libc.a(lib_a-wsetup.o)
 .data          0x0000000040027f6c        0x0 /Applications/NetBurner/gcc-m68k/bin/../lib/gcc/m68k-elf/4.2.1/../../../../m68k-elf/lib/m5206e/libc.a(lib_a-__atexit.o)
 .data          0x0000000040027f6c        0x0 /Applications/NetBurner/gcc-m68k/bin/../lib/gcc/m68k-elf/4.2.1/../../../../m68k-elf/lib/m5206e/libc.a(lib_a-fflush.o)
 .data          0x0000000040027f6c        0x0 /Applications/NetBurner/gcc-m68k/bin/../lib/gcc/m68k-elf/4.2.1/../../../../m68k-elf/lib/m5206e/libc.a(lib_a-findfp.o)
 .data          0x0000000040027f6c        0x0 /Applications/NetBurner/gcc-m68k/bin/../lib/gcc/m68k-elf/4.2.1/../../../../m68k-elf/lib/m5206e/libc.a(lib_a-freer.o)
 .data          0x0000000040027f6c        0x0 /Applications/NetBurner/gcc-m68k/bin/../lib/gcc/m68k-elf/4.2.1/../../../../m68k-elf/lib/m5206e/libc.a(lib_a-fvwrite.o)
 .data          0x0000000040027f6c        0x0 /Applications/NetBurner/gcc-m68k/bin/../lib/gcc/m68k-elf/4.2.1/../../../../m68k-elf/lib/m5206e/libc.a(lib_a-fwalk.o)
 .data          0x0000000040027f6c       0x10 /Applications/NetBurner/gcc-m68k/bin/../lib/gcc/m68k-elf/4.2.1/../../../../m68k-elf/lib/m5206e/libc.a(lib_a-locale.o)
                0x0000000040027f6c                __mb_cur_max
                0x0000000040027f70                __lc_ctype
 .data          0x0000000040027f7c        0x0 /Applications/NetBurner/gcc-m68k/bin/../lib/gcc/m68k-elf/4.2.1/../../../../m68k-elf/lib/m5206e/libc.a(lib_a-makebuf.o)
 .data          0x0000000040027f7c        0x0 /Applications/NetBurner/gcc-m68k/bin/../lib/gcc/m68k-elf/4.2.1/../../../../m68k-elf/lib/m5206e/libc.a(lib_a-memchr.o)
 .data          0x0000000040027f7c        0x0 /Applications/NetBurner/gcc-m68k/bin/../lib/gcc/m68k-elf/4.2.1/../../../../m68k-elf/lib/m5206e/libc.a(lib_a-memmove.o)
 .data          0x0000000040027f7c        0x0 /Applications/NetBurner/gcc-m68k/bin/../lib/gcc/m68k-elf/4.2.1/../../../../m68k-elf/lib/m5206e/libc.a(lib_a-reallocr.o)
 .data          0x0000000040027f7c        0x0 /Applications/NetBurner/gcc-m68k/bin/../lib/gcc/m68k-elf/4.2.1/../../../../m68k-elf/lib/m5206e/libc.a(lib_a-refill.o)
 .data          0x0000000040027f7c        0x0 /Applications/NetBurner/gcc-m68k/bin/../lib/gcc/m68k-elf/4.2.1/../../../../m68k-elf/lib/m5206e/libc.a(lib_a-stdio.o)
 .data          0x0000000040027f7c        0x0 /Applications/NetBurner/gcc-m68k/bin/../lib/gcc/m68k-elf/4.2.1/../../../../m68k-elf/lib/m5206e/libc.a(lib_a-strcmp.o)
 .data          0x0000000040027f7c        0x0 /Applications/NetBurner/gcc-m68k/bin/../lib/gcc/m68k-elf/4.2.1/../../../../m68k-elf/lib/m5206e/libc.a(lib_a-writer.o)
 .data          0x0000000040027f7c        0x0 /Applications/NetBurner/gcc-m68k/bin/../lib/gcc/m68k-elf/4.2.1/../../../../m68k-elf/lib/m5206e/libc.a(lib_a-closer.o)
 .data          0x0000000040027f7c        0x0 /Applications/NetBurner/gcc-m68k/bin/../lib/gcc/m68k-elf/4.2.1/../../../../m68k-elf/lib/m5206e/libc.a(lib_a-fclose.o)
 .data          0x0000000040027f7c        0x0 /Applications/NetBurner/gcc-m68k/bin/../lib/gcc/m68k-elf/4.2.1/../../../../m68k-elf/lib/m5206e/libc.a(lib_a-fstatr.o)
 .data          0x0000000040027f7c        0x0 /Applications/NetBurner/gcc-m68k/bin/../lib/gcc/m68k-elf/4.2.1/../../../../m68k-elf/lib/m5206e/libc.a(lib_a-lseekr.o)
 .data          0x0000000040027f7c        0x0 /Applications/NetBurner/gcc-m68k/bin/../lib/gcc/m68k-elf/4.2.1/../../../../m68k-elf/lib/m5206e/libc.a(lib_a-readr.o)
 .data          0x0000000040027f7c        0x0 /Applications/NetBurner/gcc-m68k/bin/../lib/gcc/m68k-elf/4.2.1/m5206e/libgcc.a(_muldi3.o)
 .data          0x0000000040027f7c        0x0 /Applications/NetBurner/gcc-m68k/bin/../lib/gcc/m68k-elf/4.2.1/m5206e/crtend.o
                0x0000000040027f80                . = ALIGN (0x10)
 *fill*         0x0000000040027f7c        0x4 00
                0x0000000040027f80                _edata = .
                0x0000000040027f80                copy_end = .
                0x0000000040027f80                LD_FLASH_SECTOR_SIZE = .
                0x0000000040027f80        0x4 LONG 0x20000 (FlashAppBase - UserParamBase)

.jcr            0x0000000040027f84        0x4
 .jcr           0x0000000040027f84        0x0 /Applications/NetBurner/gcc-m68k/bin/../lib/gcc/m68k-elf/4.2.1/m5206e/crtbegin.o
 .jcr           0x0000000040027f84        0x4 /Applications/NetBurner/gcc-m68k/bin/../lib/gcc/m68k-elf/4.2.1/m5206e/crtend.o

.bss            0x0000000040027f90    0x73630
                0x0000000040027f90                . = ALIGN (0x4)
                0x0000000040027f90                __bss_start = .
 *(.shbss)
 *(.bss)
 .bss           0x0000000040027f90        0x0 /Applications/NetBurner/gcc-m68k/bin/../lib/gcc/m68k-elf/4.2.1/../../../../m68k-elf/lib/m5206e/nb-crt0.o
 .bss           0x0000000040027f90       0x1a /Applications/NetBurner/gcc-m68k/bin/../lib/gcc/m68k-elf/4.2.1/m5206e/crtbegin.o
 *fill*         0x0000000040027faa        0x2 00
 .bss           0x0000000040027fac       0x10 ./main.o
                0x0000000040027fae                stepSem
                0x0000000040027fac                seqIndex
 .bss           0x0000000040027fbc       0x60 ./stepper.o
                0x0000000040027fbc                Steppers
 .bss           0x000000004002801c        0x0 /Users/dciliske/nndk/lib/MOD5441X.a(bsp.o)
 .bss           0x000000004002801c        0x0 /Users/dciliske/nndk/lib/MOD5441X.a(flash.o)
 .bss           0x000000004002801c        0x2 /Users/dciliske/nndk/lib/MOD5441X.a(pins.o)
                0x000000004002801d                J2
                0x000000004002801c                J1
 *fill*         0x000000004002801e        0x2 00
 .bss           0x0000000040028020        0x0 /Users/dciliske/nndk/lib/NetBurner.a(ucosmcfa.o)
 .bss           0x0000000040028020        0x0 /Users/dciliske/nndk/lib/NetBurner.a(software_init.o)
 .bss           0x0000000040028020        0x4 /Users/dciliske/nndk/lib/NetBurner.a(ucos.o)
 .bss           0x0000000040028024        0x0 /Users/dciliske/nndk/lib/NetBurner.a(debugtrap.o)
 .bss           0x0000000040028024        0x4 /Users/dciliske/nndk/lib/NetBurner.a(ucosmain.o)
 .bss           0x0000000040028028        0x0 /Users/dciliske/nndk/lib/NetBurner.a(fileio.o)
 .bss           0x0000000040028028        0x0 /Users/dciliske/nndk/lib/NetBurner.a(main.o)
 .bss           0x0000000040028028     0x203a /Users/dciliske/nndk/lib/NetBurner.a(tcp.o)
                0x0000000040029a18                ShortSockets
                0x000000004002a058                LastShortFree
                0x00000000400299ce                semiactive_list
                0x0000000040029928                ws_resume_func
                0x0000000040028028                sockets
                0x00000000400299c8                listen_list_head
                0x00000000400299cc                active_list
                0x000000004002992c                m_slist
                0x00000000400299c4                user_closed_list_head
                0x00000000400299c0                free_list_head
 *fill*         0x000000004002a062        0x2 00
 .bss           0x000000004002a064        0x0 /Users/dciliske/nndk/lib/NetBurner.a(iosys.o)
 .bss           0x000000004002a064       0x60 /Users/dciliske/nndk/lib/NetBurner.a(netinterface.o)
                0x000000004002a078                FirstInterFaceIP
                0x000000004002a080                FirstInterFaceGate
                0x000000004002a07c                FirstInterFaceMask
                0x000000004002a068                pPacketfunc
                0x000000004002a064                pArpFunc
                0x000000004002a06c                ENET_BCAST
                0x000000004002a072                ENET_ZERO
                0x000000004002a084                FirstInterFaceDNS
 .bss           0x000000004002a0c4      0x406 /Users/dciliske/nndk/lib/NetBurner.a(smarttrap.o)
 *fill*         0x000000004002a4ca        0x2 00
 .bss           0x000000004002a4cc       0x1c /Users/dciliske/nndk/lib/NetBurner.a(device.o)
                0x000000004002a4cc                DeviceQspiSem
                0x000000004002a4da                DeviceI2cSem
 .bss           0x000000004002a4e8       0x28 /Users/dciliske/nndk/lib/NetBurner.a(release_tag.o)
 .bss           0x000000004002a510        0x0 /Users/dciliske/nndk/lib/NetBurner.a(release_tagdata.o)
 .bss           0x000000004002a510        0x0 /Users/dciliske/nndk/lib/NetBurner.a(init.o)
 .bss           0x000000004002a510        0x4 /Users/dciliske/nndk/lib/NetBurner.a(nbiprintf.o)
                0x000000004002a510                pPrintfFloatFunc
 .bss           0x000000004002a514        0x0 /Users/dciliske/nndk/lib/NetBurner.a(ucosmcfc.o)
 .bss           0x000000004002a514        0x4 /Users/dciliske/nndk/lib/NetBurner.a(system.o)
                0x000000004002a514                rnd_cnt
 .bss           0x000000004002a518       0x56 /Users/dciliske/nndk/lib/NetBurner.a(utils.o)
                0x000000004002a51e                frames_rx_err
                0x000000004002a52e                frames_rx_icmp
                0x000000004002a53c                enet_last_errhw
                0x000000004002a524                frames_tx_udp
                0x000000004002a518                frames_tx
                0x000000004002a52c                frames_tx_icmp
                0x000000004002a52a                frames_rx_tcp
                0x000000004002a53a                enet_last_errlw
                0x000000004002a522                frames_tx_arp
                0x000000004002a51a                frames_rx
                0x000000004002a538                frames_rx_ppp_errors
                0x000000004002a53e                ip_last_err
                0x000000004002a542                frames_rx_unknown
                0x000000004002a526                frames_rx_udp
                0x000000004002a51c                frames_tx_err
                0x000000004002a540                enet_isr
                0x000000004002a534                frames_udp_errors
                0x000000004002a532                frames_ip_discard
                0x000000004002a544                frames_rx_fragment
                0x000000004002a546                static_buffer
                0x000000004002a528                frames_tx_tcp
                0x000000004002a520                frames_rx_arp
                0x000000004002a530                frames_ip_errors
                0x000000004002a536                frames_tcp_errors
 *fill*         0x000000004002a56e        0x2 00
 .bss           0x000000004002a570        0xa /Users/dciliske/nndk/lib/NetBurner.a(ip.o)
                0x000000004002a570                ip_errs
 *fill*         0x000000004002a57a        0x6 00
 .bss           0x000000004002a580    0x6b010 /Users/dciliske/nndk/lib/NetBurner.a(buffers.o)
                0x000000004002a580                LastHead
 .bss           0x0000000040095590     0x1e20 /Users/dciliske/nndk/lib/NetBurner.a(arp.o)
                0x00000000400955a0                wArpLifetime
                0x0000000040095590                ARP_critical_section
 .bss           0x00000000400973b0        0x8 /Users/dciliske/nndk/lib/NetBurner.a(udp.o)
                0x00000000400973b0                ipsetup_authenticate_func
                0x00000000400973b4                AutoUpdatePtr
 .bss           0x00000000400973b8        0x8 /Users/dciliske/nndk/lib/NetBurner.a(autoip.o)
                0x00000000400973b8                _ZN12AutoIPClient14staticNextTickE
 .bss           0x00000000400973c0       0x18 /Users/dciliske/nndk/lib/NetBurner.a(dhcpc.o)
                0x00000000400973c0                AddDhcpOptionsFunc
                0x00000000400973c4                AddDhcpFieldsFunc
                0x00000000400973c8                ParseDhcpOptions
                0x00000000400973cc                pDHCPOfferName
                0x00000000400973d0                DHCPDiscoverSeconds
 .bss           0x00000000400973d8        0x0 /Users/dciliske/nndk/lib/NetBurner.a(defappname.o)
 .bss           0x00000000400973d8     0x1004 /Users/dciliske/nndk/lib/NetBurner.a(taskmon.o)
 .bss           0x00000000400983dc       0x10 /Users/dciliske/nndk/lib/NetBurner.a(autoupdate.o)
                0x00000000400983e8                watchdog_service_function
                0x00000000400983e4                update_shutdown_func
                0x00000000400983dc                pCurRecord
                0x00000000400983e0                update_authenticate_func
 .bss           0x00000000400983ec        0x0 /Users/dciliske/nndk/lib/NetBurner.a(nbsiprintf.o)
 .bss           0x00000000400983ec        0x0 /Users/dciliske/nndk/lib/NetBurner.a(new_ops.o)
 .bss           0x00000000400983ec        0x0 /Users/dciliske/nndk/lib/MOD5441X.a(localio.o)
 .bss           0x00000000400983ec      0x469 /Users/dciliske/nndk/lib/MOD5441X.a(serial.o)
                0x00000000400986f8                Serial_Ioexp
                0x0000000040098414                UartData
                0x0000000040098708                serisrcnt
                0x0000000040098710                serisrtcnt
                0x000000004009870c                serisrrcnt
                0x0000000040098728                p2
                0x0000000040098720                serisrtxcx
                0x0000000040098718                LastGCChan
                0x0000000040098724                p1
                0x000000004009871c                serisrtxc
                0x0000000040098714                LastIsrChan
                0x00000000400983ec                Uarts
 *fill*         0x0000000040098855        0x3 00
 .bss           0x0000000040098858       0x5f /Users/dciliske/nndk/lib/MOD5441X.a(ethernet.o)
                0x000000004009885c                EtherLinkCallback
                0x0000000040098864                EthernetMac
                0x0000000040098860                EtherLinkCallback1
                0x000000004009886a                EthernetMac1
                0x0000000040098858                port1state
                0x00000000400988b2                trcr
                0x0000000040098870                EthernetBlock
 *fill*         0x00000000400988b7        0x1 00
 .bss           0x00000000400988b8        0x0 /Users/dciliske/nndk/lib/MOD5441X.a(etherprint.o)
 .bss           0x00000000400988b8      0x100 /Users/dciliske/nndk/lib/MOD5441X.a(emulticast.o)
 .bss           0x00000000400989b8       0x42 /Users/dciliske/nndk/lib/MOD5441X.a(ether2nd.o)
                0x00000000400989b8                EthernetBlock1
 *fill*         0x00000000400989fa        0x2 00
 .bss           0x00000000400989fc        0x8 /Users/dciliske/nndk/lib/MOD5441X.a(etherswitch.o)
                0x00000000400989fc                RevMac
 .bss           0x0000000040098a04        0x0 /Users/dciliske/nndk/lib/MOD5441X.a(weak_autoenet_var.o)
 .bss           0x0000000040098a04      0x15a /Users/dciliske/nndk/lib/NetBurner.a(extraio.o)
 *fill*         0x0000000040098b5e        0x2 00
 .bss           0x0000000040098b60        0x0 /Users/dciliske/nndk/lib/NetBurner.a(netrx.o)
 .bss           0x0000000040098b60        0x0 /Users/dciliske/nndk/lib/NetBurner.a(multiconfig.o)
 .bss           0x0000000040098b60        0x0 /Applications/NetBurner/gcc-m68k/bin/../lib/gcc/m68k-elf/4.2.1/m5206e/libgcc.a(_double.o)
 .bss           0x0000000040098b60        0x0 /Applications/NetBurner/gcc-m68k/bin/../lib/gcc/m68k-elf/4.2.1/m5206e/libgcc.a(_floatex.o)
 .bss           0x0000000040098b60        0x0 /Applications/NetBurner/gcc-m68k/bin/../lib/gcc/m68k-elf/4.2.1/m5206e/libgcc.a(_fixunsdfsi.o)
 .bss           0x0000000040098b60        0x0 /Applications/NetBurner/gcc-m68k/bin/../lib/gcc/m68k-elf/4.2.1/m5206e/libgcc.a(_udivdi3.o)
 .bss           0x0000000040098b60        0x0 /Applications/NetBurner/gcc-m68k/bin/../lib/gcc/m68k-elf/4.2.1/m5206e/libgcc.a(_umoddi3.o)
 .bss           0x0000000040098b60        0x0 /Applications/NetBurner/gcc-m68k/bin/../lib/gcc/m68k-elf/4.2.1/m5206e/libgcc.a(fpgnulib.o)
 .bss           0x0000000040098b60        0x0 /Applications/NetBurner/gcc-m68k/bin/../lib/gcc/m68k-elf/4.2.1/m5206e/libgcc.a(_gedf2.o)
 .bss           0x0000000040098b60        0x0 /Applications/NetBurner/gcc-m68k/bin/../lib/gcc/m68k-elf/4.2.1/m5206e/libgcc.a(_clz.o)
 .bss           0x0000000040098b60        0x0 /Applications/NetBurner/gcc-m68k/bin/../lib/gcc/m68k-elf/4.2.1/../../../../m68k-elf/lib/m5206e/libc.a(lib_a-cxa_atexit.o)
 .bss           0x0000000040098b60        0x0 /Applications/NetBurner/gcc-m68k/bin/../lib/gcc/m68k-elf/4.2.1/../../../../m68k-elf/lib/m5206e/libc.a(lib_a-errno.o)
 .bss           0x0000000040098b60        0x0 /Applications/NetBurner/gcc-m68k/bin/../lib/gcc/m68k-elf/4.2.1/../../../../m68k-elf/lib/m5206e/libc.a(lib_a-fiprintf.o)
 .bss           0x0000000040098b60        0x0 /Applications/NetBurner/gcc-m68k/bin/../lib/gcc/m68k-elf/4.2.1/../../../../m68k-elf/lib/m5206e/libc.a(lib_a-impure.o)
 .bss           0x0000000040098b60        0x0 /Applications/NetBurner/gcc-m68k/bin/../lib/gcc/m68k-elf/4.2.1/../../../../m68k-elf/lib/m5206e/libc.a(lib_a-malloc.o)
 .bss           0x0000000040098b60       0x34 /Applications/NetBurner/gcc-m68k/bin/../lib/gcc/m68k-elf/4.2.1/../../../../m68k-elf/lib/m5206e/libc.a(lib_a-mallocr.o)
                0x0000000040098b60                __malloc_top_pad
                0x0000000040098b64                __malloc_max_sbrked_mem
                0x0000000040098b6c                __malloc_current_mallinfo
                0x0000000040098b68                __malloc_max_total_mem
 .bss           0x0000000040098b94        0x0 /Applications/NetBurner/gcc-m68k/bin/../lib/gcc/m68k-elf/4.2.1/../../../../m68k-elf/lib/m5206e/libc.a(lib_a-puts.o)
 .bss           0x0000000040098b94        0x0 /Applications/NetBurner/gcc-m68k/bin/../lib/gcc/m68k-elf/4.2.1/../../../../m68k-elf/lib/m5206e/libc.a(lib_a-rand.o)
 .bss           0x0000000040098b94        0x0 /Applications/NetBurner/gcc-m68k/bin/../lib/gcc/m68k-elf/4.2.1/../../../../m68k-elf/lib/m5206e/libc.a(lib_a-rget.o)
 .bss           0x0000000040098b94        0x0 /Applications/NetBurner/gcc-m68k/bin/../lib/gcc/m68k-elf/4.2.1/../../../../m68k-elf/lib/m5206e/libc.a(lib_a-setvbuf.o)
 .bss           0x0000000040098b94        0x0 /Applications/NetBurner/gcc-m68k/bin/../lib/gcc/m68k-elf/4.2.1/../../../../m68k-elf/lib/m5206e/libc.a(lib_a-strlen.o)
 .bss           0x0000000040098b94        0x0 /Applications/NetBurner/gcc-m68k/bin/../lib/gcc/m68k-elf/4.2.1/../../../../m68k-elf/lib/m5206e/libc.a(lib_a-vfiprintf.o)
 .bss           0x0000000040098b94        0x0 /Applications/NetBurner/gcc-m68k/bin/../lib/gcc/m68k-elf/4.2.1/../../../../m68k-elf/lib/m5206e/libc.a(lib_a-wbuf.o)
 .bss           0x0000000040098b94        0x0 /Applications/NetBurner/gcc-m68k/bin/../lib/gcc/m68k-elf/4.2.1/../../../../m68k-elf/lib/m5206e/libc.a(lib_a-wcrtomb.o)
 .bss           0x0000000040098b94        0x0 /Applications/NetBurner/gcc-m68k/bin/../lib/gcc/m68k-elf/4.2.1/../../../../m68k-elf/lib/m5206e/libc.a(lib_a-wcsrtombs.o)
 .bss           0x0000000040098b94        0x0 /Applications/NetBurner/gcc-m68k/bin/../lib/gcc/m68k-elf/4.2.1/../../../../m68k-elf/lib/m5206e/libc.a(lib_a-wctomb_r.o)
 .bss           0x0000000040098b94        0x0 /Applications/NetBurner/gcc-m68k/bin/../lib/gcc/m68k-elf/4.2.1/../../../../m68k-elf/lib/m5206e/libc.a(lib_a-wsetup.o)
 .bss           0x0000000040098b94        0x0 /Applications/NetBurner/gcc-m68k/bin/../lib/gcc/m68k-elf/4.2.1/../../../../m68k-elf/lib/m5206e/libc.a(lib_a-__atexit.o)
 .bss           0x0000000040098b94        0x0 /Applications/NetBurner/gcc-m68k/bin/../lib/gcc/m68k-elf/4.2.1/../../../../m68k-elf/lib/m5206e/libc.a(lib_a-fflush.o)
 .bss           0x0000000040098b94        0x0 /Applications/NetBurner/gcc-m68k/bin/../lib/gcc/m68k-elf/4.2.1/../../../../m68k-elf/lib/m5206e/libc.a(lib_a-findfp.o)
 .bss           0x0000000040098b94        0x0 /Applications/NetBurner/gcc-m68k/bin/../lib/gcc/m68k-elf/4.2.1/../../../../m68k-elf/lib/m5206e/libc.a(lib_a-freer.o)
 .bss           0x0000000040098b94        0x0 /Applications/NetBurner/gcc-m68k/bin/../lib/gcc/m68k-elf/4.2.1/../../../../m68k-elf/lib/m5206e/libc.a(lib_a-fvwrite.o)
 .bss           0x0000000040098b94        0x0 /Applications/NetBurner/gcc-m68k/bin/../lib/gcc/m68k-elf/4.2.1/../../../../m68k-elf/lib/m5206e/libc.a(lib_a-fwalk.o)
 .bss           0x0000000040098b94        0xc /Applications/NetBurner/gcc-m68k/bin/../lib/gcc/m68k-elf/4.2.1/../../../../m68k-elf/lib/m5206e/libc.a(lib_a-locale.o)
                0x0000000040098b94                __nlocale_changed
                0x0000000040098b98                __mlocale_changed
                0x0000000040098b9c                _PathLocale
 .bss           0x0000000040098ba0        0x0 /Applications/NetBurner/gcc-m68k/bin/../lib/gcc/m68k-elf/4.2.1/../../../../m68k-elf/lib/m5206e/libc.a(lib_a-makebuf.o)
 .bss           0x0000000040098ba0        0x0 /Applications/NetBurner/gcc-m68k/bin/../lib/gcc/m68k-elf/4.2.1/../../../../m68k-elf/lib/m5206e/libc.a(lib_a-memchr.o)
 .bss           0x0000000040098ba0        0x0 /Applications/NetBurner/gcc-m68k/bin/../lib/gcc/m68k-elf/4.2.1/../../../../m68k-elf/lib/m5206e/libc.a(lib_a-memmove.o)
 .bss           0x0000000040098ba0        0x0 /Applications/NetBurner/gcc-m68k/bin/../lib/gcc/m68k-elf/4.2.1/../../../../m68k-elf/lib/m5206e/libc.a(lib_a-reallocr.o)
 .bss           0x0000000040098ba0        0x0 /Applications/NetBurner/gcc-m68k/bin/../lib/gcc/m68k-elf/4.2.1/../../../../m68k-elf/lib/m5206e/libc.a(lib_a-refill.o)
 .bss           0x0000000040098ba0        0x0 /Applications/NetBurner/gcc-m68k/bin/../lib/gcc/m68k-elf/4.2.1/../../../../m68k-elf/lib/m5206e/libc.a(lib_a-stdio.o)
 .bss           0x0000000040098ba0        0x0 /Applications/NetBurner/gcc-m68k/bin/../lib/gcc/m68k-elf/4.2.1/../../../../m68k-elf/lib/m5206e/libc.a(lib_a-strcmp.o)
 .bss           0x0000000040098ba0        0x0 /Applications/NetBurner/gcc-m68k/bin/../lib/gcc/m68k-elf/4.2.1/../../../../m68k-elf/lib/m5206e/libc.a(lib_a-writer.o)
 .bss           0x0000000040098ba0        0x0 /Applications/NetBurner/gcc-m68k/bin/../lib/gcc/m68k-elf/4.2.1/../../../../m68k-elf/lib/m5206e/libc.a(lib_a-closer.o)
 .bss           0x0000000040098ba0        0x0 /Applications/NetBurner/gcc-m68k/bin/../lib/gcc/m68k-elf/4.2.1/../../../../m68k-elf/lib/m5206e/libc.a(lib_a-fclose.o)
 .bss           0x0000000040098ba0        0x0 /Applications/NetBurner/gcc-m68k/bin/../lib/gcc/m68k-elf/4.2.1/../../../../m68k-elf/lib/m5206e/libc.a(lib_a-fstatr.o)
 .bss           0x0000000040098ba0        0x0 /Applications/NetBurner/gcc-m68k/bin/../lib/gcc/m68k-elf/4.2.1/../../../../m68k-elf/lib/m5206e/libc.a(lib_a-lseekr.o)
 .bss           0x0000000040098ba0        0x0 /Applications/NetBurner/gcc-m68k/bin/../lib/gcc/m68k-elf/4.2.1/../../../../m68k-elf/lib/m5206e/libc.a(lib_a-readr.o)
 .bss           0x0000000040098ba0        0x0 /Applications/NetBurner/gcc-m68k/bin/../lib/gcc/m68k-elf/4.2.1/m5206e/libgcc.a(_muldi3.o)
 .bss           0x0000000040098ba0        0x0 /Applications/NetBurner/gcc-m68k/bin/../lib/gcc/m68k-elf/4.2.1/m5206e/crtend.o
 *(.bss.*)
 *(COMMON)
 COMMON         0x0000000040098ba0       0x10 /Users/dciliske/nndk/lib/MOD5441X.a(bsp.o)
                0x0000000040098ba0                BspTickMaxCount
                0x0000000040098ba2                errno
                0x0000000040098ba6                TERR_REGISTER
                0x0000000040098ba8                heap_ptr
                0x0000000040098bac                CPU_CLOCK
 COMMON         0x0000000040098bb0        0xc /Users/dciliske/nndk/lib/NetBurner.a(debugtrap.o)
                0x0000000040098bb0                WDEBUGSTRUCT
                0x0000000040098bb8                WDEBUGSTRUCTP
 COMMON         0x0000000040098bbc     0x2000 /Users/dciliske/nndk/lib/NetBurner.a(ucosmain.o)
                0x0000000040098bbc                OSIdleTaskStk
 COMMON         0x000000004009abbc      0xa04 /Users/dciliske/nndk/lib/NetBurner.a(system.o)
                0x000000004009abbc                NotifyUpdatePtr
                0x000000004009abc0                rnd_collect
                0x000000004009adc0                config_rec_buf
                0x000000004009b5c0                _end = ALIGN (0x8)
                0x000000004009b5c0                __end = _end

.stab
 *(.stab)

.stabstr
 *(.stabstr)

.debug
 *(.debug)

.line
 *(.line)

.debug_srcinfo
 *(.debug_srcinfo)

.debug_sfnames
 *(.debug_sfnames)

.debug_aranges  0x0000000000000000      0xaa0
 *(.debug_aranges)
 .debug_aranges
                0x0000000000000000       0x20 ./main.o
 .debug_aranges
                0x0000000000000020       0x20 ./stepper.o
 .debug_aranges
                0x0000000000000040       0x20 /Users/dciliske/nndk/lib/MOD5441X.a(bsp.o)
 .debug_aranges
                0x0000000000000060       0x20 /Users/dciliske/nndk/lib/MOD5441X.a(flash.o)
 .debug_aranges
                0x0000000000000080       0x20 /Users/dciliske/nndk/lib/MOD5441X.a(pins.o)
 .debug_aranges
                0x00000000000000a0       0x20 /Users/dciliske/nndk/lib/NetBurner.a(ucos.o)
 .debug_aranges
                0x00000000000000c0       0x20 /Users/dciliske/nndk/lib/NetBurner.a(debugtrap.o)
 .debug_aranges
                0x00000000000000e0       0x20 /Users/dciliske/nndk/lib/NetBurner.a(ucosmain.o)
 .debug_aranges
                0x0000000000000100       0x20 /Users/dciliske/nndk/lib/NetBurner.a(fileio.o)
 .debug_aranges
                0x0000000000000120       0x20 /Users/dciliske/nndk/lib/NetBurner.a(main.o)
 .debug_aranges
                0x0000000000000140       0x20 /Users/dciliske/nndk/lib/NetBurner.a(tcp.o)
 .debug_aranges
                0x0000000000000160       0x20 /Users/dciliske/nndk/lib/NetBurner.a(iosys.o)
 .debug_aranges
                0x0000000000000180       0x20 /Users/dciliske/nndk/lib/NetBurner.a(netinterface.o)
 .debug_aranges
                0x00000000000001a0       0x20 /Users/dciliske/nndk/lib/NetBurner.a(smarttrap.o)
 .debug_aranges
                0x00000000000001c0       0x20 /Users/dciliske/nndk/lib/NetBurner.a(device.o)
 .debug_aranges
                0x00000000000001e0       0x20 /Users/dciliske/nndk/lib/NetBurner.a(release_tag.o)
 .debug_aranges
                0x0000000000000200       0x20 /Users/dciliske/nndk/lib/NetBurner.a(init.o)
 .debug_aranges
                0x0000000000000220       0x20 /Users/dciliske/nndk/lib/NetBurner.a(nbiprintf.o)
 .debug_aranges
                0x0000000000000240       0x20 /Users/dciliske/nndk/lib/NetBurner.a(ucosmcfc.o)
 .debug_aranges
                0x0000000000000260       0x20 /Users/dciliske/nndk/lib/NetBurner.a(system.o)
 .debug_aranges
                0x0000000000000280       0x20 /Users/dciliske/nndk/lib/NetBurner.a(utils.o)
 .debug_aranges
                0x00000000000002a0       0x20 /Users/dciliske/nndk/lib/NetBurner.a(ip.o)
 .debug_aranges
                0x00000000000002c0       0x20 /Users/dciliske/nndk/lib/NetBurner.a(buffers.o)
 .debug_aranges
                0x00000000000002e0       0x20 /Users/dciliske/nndk/lib/NetBurner.a(arp.o)
 .debug_aranges
                0x0000000000000300       0x20 /Users/dciliske/nndk/lib/NetBurner.a(udp.o)
 .debug_aranges
                0x0000000000000320       0x20 /Users/dciliske/nndk/lib/NetBurner.a(autoip.o)
 .debug_aranges
                0x0000000000000340       0x20 /Users/dciliske/nndk/lib/NetBurner.a(dhcpc.o)
 .debug_aranges
                0x0000000000000360       0x20 /Users/dciliske/nndk/lib/NetBurner.a(taskmon.o)
 .debug_aranges
                0x0000000000000380       0x20 /Users/dciliske/nndk/lib/NetBurner.a(autoupdate.o)
 .debug_aranges
                0x00000000000003a0       0x20 /Users/dciliske/nndk/lib/NetBurner.a(nbsiprintf.o)
 .debug_aranges
                0x00000000000003c0       0x20 /Users/dciliske/nndk/lib/NetBurner.a(new_ops.o)
 .debug_aranges
                0x00000000000003e0       0x20 /Users/dciliske/nndk/lib/MOD5441X.a(localio.o)
 .debug_aranges
                0x0000000000000400       0x20 /Users/dciliske/nndk/lib/MOD5441X.a(serial.o)
 .debug_aranges
                0x0000000000000420       0x20 /Users/dciliske/nndk/lib/MOD5441X.a(ethernet.o)
 .debug_aranges
                0x0000000000000440       0x20 /Users/dciliske/nndk/lib/MOD5441X.a(etherprint.o)
 .debug_aranges
                0x0000000000000460       0x20 /Users/dciliske/nndk/lib/MOD5441X.a(emulticast.o)
 .debug_aranges
                0x0000000000000480       0x20 /Users/dciliske/nndk/lib/MOD5441X.a(ether2nd.o)
 .debug_aranges
                0x00000000000004a0       0x20 /Users/dciliske/nndk/lib/MOD5441X.a(etherswitch.o)
 .debug_aranges
                0x00000000000004c0       0x20 /Users/dciliske/nndk/lib/NetBurner.a(extraio.o)
 .debug_aranges
                0x00000000000004e0       0x20 /Users/dciliske/nndk/lib/NetBurner.a(netrx.o)
 .debug_aranges
                0x0000000000000500       0x20 /Users/dciliske/nndk/lib/NetBurner.a(multiconfig.o)
 .debug_aranges
                0x0000000000000520       0x20 /Applications/NetBurner/gcc-m68k/bin/../lib/gcc/m68k-elf/4.2.1/m5206e/libgcc.a(_double.o)
 .debug_aranges
                0x0000000000000540       0x20 /Applications/NetBurner/gcc-m68k/bin/../lib/gcc/m68k-elf/4.2.1/m5206e/libgcc.a(_floatex.o)
 .debug_aranges
                0x0000000000000560       0x20 /Applications/NetBurner/gcc-m68k/bin/../lib/gcc/m68k-elf/4.2.1/m5206e/libgcc.a(_fixunsdfsi.o)
 .debug_aranges
                0x0000000000000580       0x20 /Applications/NetBurner/gcc-m68k/bin/../lib/gcc/m68k-elf/4.2.1/m5206e/libgcc.a(_udivdi3.o)
 .debug_aranges
                0x00000000000005a0       0x20 /Applications/NetBurner/gcc-m68k/bin/../lib/gcc/m68k-elf/4.2.1/m5206e/libgcc.a(_umoddi3.o)
 .debug_aranges
                0x00000000000005c0       0x20 /Applications/NetBurner/gcc-m68k/bin/../lib/gcc/m68k-elf/4.2.1/m5206e/libgcc.a(fpgnulib.o)
 .debug_aranges
                0x00000000000005e0       0x20 /Applications/NetBurner/gcc-m68k/bin/../lib/gcc/m68k-elf/4.2.1/m5206e/libgcc.a(_gedf2.o)
 .debug_aranges
                0x0000000000000600       0x20 /Applications/NetBurner/gcc-m68k/bin/../lib/gcc/m68k-elf/4.2.1/../../../../m68k-elf/lib/m5206e/libc.a(lib_a-cxa_atexit.o)
 .debug_aranges
                0x0000000000000620       0x20 /Applications/NetBurner/gcc-m68k/bin/../lib/gcc/m68k-elf/4.2.1/../../../../m68k-elf/lib/m5206e/libc.a(lib_a-errno.o)
 .debug_aranges
                0x0000000000000640       0x20 /Applications/NetBurner/gcc-m68k/bin/../lib/gcc/m68k-elf/4.2.1/../../../../m68k-elf/lib/m5206e/libc.a(lib_a-fiprintf.o)
 .debug_aranges
                0x0000000000000660       0x20 /Applications/NetBurner/gcc-m68k/bin/../lib/gcc/m68k-elf/4.2.1/../../../../m68k-elf/lib/m5206e/libc.a(lib_a-malloc.o)
 .debug_aranges
                0x0000000000000680       0x20 /Applications/NetBurner/gcc-m68k/bin/../lib/gcc/m68k-elf/4.2.1/../../../../m68k-elf/lib/m5206e/libc.a(lib_a-mallocr.o)
 .debug_aranges
                0x00000000000006a0       0x20 /Applications/NetBurner/gcc-m68k/bin/../lib/gcc/m68k-elf/4.2.1/../../../../m68k-elf/lib/m5206e/libc.a(lib_a-puts.o)
 .debug_aranges
                0x00000000000006c0       0x20 /Applications/NetBurner/gcc-m68k/bin/../lib/gcc/m68k-elf/4.2.1/../../../../m68k-elf/lib/m5206e/libc.a(lib_a-rand.o)
 .debug_aranges
                0x00000000000006e0       0x20 /Applications/NetBurner/gcc-m68k/bin/../lib/gcc/m68k-elf/4.2.1/../../../../m68k-elf/lib/m5206e/libc.a(lib_a-rget.o)
 .debug_aranges
                0x0000000000000700       0x20 /Applications/NetBurner/gcc-m68k/bin/../lib/gcc/m68k-elf/4.2.1/../../../../m68k-elf/lib/m5206e/libc.a(lib_a-setvbuf.o)
 .debug_aranges
                0x0000000000000720       0x20 /Applications/NetBurner/gcc-m68k/bin/../lib/gcc/m68k-elf/4.2.1/../../../../m68k-elf/lib/m5206e/libc.a(lib_a-strlen.o)
 .debug_aranges
                0x0000000000000740       0x20 /Applications/NetBurner/gcc-m68k/bin/../lib/gcc/m68k-elf/4.2.1/../../../../m68k-elf/lib/m5206e/libc.a(lib_a-vfiprintf.o)
 .debug_aranges
                0x0000000000000760       0x20 /Applications/NetBurner/gcc-m68k/bin/../lib/gcc/m68k-elf/4.2.1/../../../../m68k-elf/lib/m5206e/libc.a(lib_a-wbuf.o)
 .debug_aranges
                0x0000000000000780       0x20 /Applications/NetBurner/gcc-m68k/bin/../lib/gcc/m68k-elf/4.2.1/../../../../m68k-elf/lib/m5206e/libc.a(lib_a-wcrtomb.o)
 .debug_aranges
                0x00000000000007a0       0x20 /Applications/NetBurner/gcc-m68k/bin/../lib/gcc/m68k-elf/4.2.1/../../../../m68k-elf/lib/m5206e/libc.a(lib_a-wcsrtombs.o)
 .debug_aranges
                0x00000000000007c0       0x20 /Applications/NetBurner/gcc-m68k/bin/../lib/gcc/m68k-elf/4.2.1/../../../../m68k-elf/lib/m5206e/libc.a(lib_a-wctomb_r.o)
 .debug_aranges
                0x00000000000007e0       0x20 /Applications/NetBurner/gcc-m68k/bin/../lib/gcc/m68k-elf/4.2.1/../../../../m68k-elf/lib/m5206e/libc.a(lib_a-wsetup.o)
 .debug_aranges
                0x0000000000000800       0x20 /Applications/NetBurner/gcc-m68k/bin/../lib/gcc/m68k-elf/4.2.1/../../../../m68k-elf/lib/m5206e/libc.a(lib_a-__atexit.o)
 .debug_aranges
                0x0000000000000820       0x20 /Applications/NetBurner/gcc-m68k/bin/../lib/gcc/m68k-elf/4.2.1/../../../../m68k-elf/lib/m5206e/libc.a(lib_a-fflush.o)
 .debug_aranges
                0x0000000000000840       0x20 /Applications/NetBurner/gcc-m68k/bin/../lib/gcc/m68k-elf/4.2.1/../../../../m68k-elf/lib/m5206e/libc.a(lib_a-findfp.o)
 .debug_aranges
                0x0000000000000860       0x20 /Applications/NetBurner/gcc-m68k/bin/../lib/gcc/m68k-elf/4.2.1/../../../../m68k-elf/lib/m5206e/libc.a(lib_a-freer.o)
 .debug_aranges
                0x0000000000000880       0x20 /Applications/NetBurner/gcc-m68k/bin/../lib/gcc/m68k-elf/4.2.1/../../../../m68k-elf/lib/m5206e/libc.a(lib_a-fvwrite.o)
 .debug_aranges
                0x00000000000008a0       0x20 /Applications/NetBurner/gcc-m68k/bin/../lib/gcc/m68k-elf/4.2.1/../../../../m68k-elf/lib/m5206e/libc.a(lib_a-fwalk.o)
 .debug_aranges
                0x00000000000008c0       0x20 /Applications/NetBurner/gcc-m68k/bin/../lib/gcc/m68k-elf/4.2.1/../../../../m68k-elf/lib/m5206e/libc.a(lib_a-locale.o)
 .debug_aranges
                0x00000000000008e0       0x20 /Applications/NetBurner/gcc-m68k/bin/../lib/gcc/m68k-elf/4.2.1/../../../../m68k-elf/lib/m5206e/libc.a(lib_a-makebuf.o)
 .debug_aranges
                0x0000000000000900       0x20 /Applications/NetBurner/gcc-m68k/bin/../lib/gcc/m68k-elf/4.2.1/../../../../m68k-elf/lib/m5206e/libc.a(lib_a-memchr.o)
 .debug_aranges
                0x0000000000000920       0x20 /Applications/NetBurner/gcc-m68k/bin/../lib/gcc/m68k-elf/4.2.1/../../../../m68k-elf/lib/m5206e/libc.a(lib_a-memmove.o)
 .debug_aranges
                0x0000000000000940       0x20 /Applications/NetBurner/gcc-m68k/bin/../lib/gcc/m68k-elf/4.2.1/../../../../m68k-elf/lib/m5206e/libc.a(lib_a-reallocr.o)
 .debug_aranges
                0x0000000000000960       0x20 /Applications/NetBurner/gcc-m68k/bin/../lib/gcc/m68k-elf/4.2.1/../../../../m68k-elf/lib/m5206e/libc.a(lib_a-refill.o)
 .debug_aranges
                0x0000000000000980       0x20 /Applications/NetBurner/gcc-m68k/bin/../lib/gcc/m68k-elf/4.2.1/../../../../m68k-elf/lib/m5206e/libc.a(lib_a-stdio.o)
 .debug_aranges
                0x00000000000009a0       0x20 /Applications/NetBurner/gcc-m68k/bin/../lib/gcc/m68k-elf/4.2.1/../../../../m68k-elf/lib/m5206e/libc.a(lib_a-strcmp.o)
 .debug_aranges
                0x00000000000009c0       0x20 /Applications/NetBurner/gcc-m68k/bin/../lib/gcc/m68k-elf/4.2.1/../../../../m68k-elf/lib/m5206e/libc.a(lib_a-writer.o)
 .debug_aranges
                0x00000000000009e0       0x20 /Applications/NetBurner/gcc-m68k/bin/../lib/gcc/m68k-elf/4.2.1/../../../../m68k-elf/lib/m5206e/libc.a(lib_a-closer.o)
 .debug_aranges
                0x0000000000000a00       0x20 /Applications/NetBurner/gcc-m68k/bin/../lib/gcc/m68k-elf/4.2.1/../../../../m68k-elf/lib/m5206e/libc.a(lib_a-fclose.o)
 .debug_aranges
                0x0000000000000a20       0x20 /Applications/NetBurner/gcc-m68k/bin/../lib/gcc/m68k-elf/4.2.1/../../../../m68k-elf/lib/m5206e/libc.a(lib_a-fstatr.o)
 .debug_aranges
                0x0000000000000a40       0x20 /Applications/NetBurner/gcc-m68k/bin/../lib/gcc/m68k-elf/4.2.1/../../../../m68k-elf/lib/m5206e/libc.a(lib_a-lseekr.o)
 .debug_aranges
                0x0000000000000a60       0x20 /Applications/NetBurner/gcc-m68k/bin/../lib/gcc/m68k-elf/4.2.1/../../../../m68k-elf/lib/m5206e/libc.a(lib_a-readr.o)
 .debug_aranges
                0x0000000000000a80       0x20 /Applications/NetBurner/gcc-m68k/bin/../lib/gcc/m68k-elf/4.2.1/m5206e/libgcc.a(_muldi3.o)

.debug_pubnames
                0x0000000000000000     0x4ba3
 *(.debug_pubnames)
 .debug_pubnames
                0x0000000000000000       0x44 ./main.o
 .debug_pubnames
                0x0000000000000044       0xfa ./stepper.o
 .debug_pubnames
                0x000000000000013e      0x130 /Users/dciliske/nndk/lib/MOD5441X.a(bsp.o)
 .debug_pubnames
                0x000000000000026e       0x32 /Users/dciliske/nndk/lib/MOD5441X.a(flash.o)
 .debug_pubnames
                0x00000000000002a0       0x7e /Users/dciliske/nndk/lib/MOD5441X.a(pins.o)
 .debug_pubnames
                0x000000000000031e      0x3d3 /Users/dciliske/nndk/lib/NetBurner.a(ucos.o)
 .debug_pubnames
                0x00000000000006f1       0xaa /Users/dciliske/nndk/lib/NetBurner.a(debugtrap.o)
 .debug_pubnames
                0x000000000000079b       0xf1 /Users/dciliske/nndk/lib/NetBurner.a(ucosmain.o)
 .debug_pubnames
                0x000000000000088c       0xe2 /Users/dciliske/nndk/lib/NetBurner.a(fileio.o)
 .debug_pubnames
                0x000000000000096e       0x3d /Users/dciliske/nndk/lib/NetBurner.a(main.o)
 .debug_pubnames
                0x00000000000009ab      0xa04 /Users/dciliske/nndk/lib/NetBurner.a(tcp.o)
 .debug_pubnames
                0x00000000000013af      0x1b2 /Users/dciliske/nndk/lib/NetBurner.a(iosys.o)
 .debug_pubnames
                0x0000000000001561      0x22e /Users/dciliske/nndk/lib/NetBurner.a(netinterface.o)
 .debug_pubnames
                0x000000000000178f       0xaa /Users/dciliske/nndk/lib/NetBurner.a(smarttrap.o)
 .debug_pubnames
                0x0000000000001839       0x76 /Users/dciliske/nndk/lib/NetBurner.a(device.o)
 .debug_pubnames
                0x00000000000018af       0x24 /Users/dciliske/nndk/lib/NetBurner.a(release_tag.o)
 .debug_pubnames
                0x00000000000018d3       0x2e /Users/dciliske/nndk/lib/NetBurner.a(release_tagdata.o)
 .debug_pubnames
                0x0000000000001901       0x1b /Users/dciliske/nndk/lib/NetBurner.a(init.o)
 .debug_pubnames
                0x000000000000191c      0x153 /Users/dciliske/nndk/lib/NetBurner.a(nbiprintf.o)
 .debug_pubnames
                0x0000000000001a6f       0x62 /Users/dciliske/nndk/lib/NetBurner.a(ucosmcfc.o)
 .debug_pubnames
                0x0000000000001ad1       0xf4 /Users/dciliske/nndk/lib/NetBurner.a(system.o)
 .debug_pubnames
                0x0000000000001bc5      0x30c /Users/dciliske/nndk/lib/NetBurner.a(utils.o)
 .debug_pubnames
                0x0000000000001ed1      0x30b /Users/dciliske/nndk/lib/NetBurner.a(ip.o)
 .debug_pubnames
                0x00000000000021dc      0x41e /Users/dciliske/nndk/lib/NetBurner.a(buffers.o)
 .debug_pubnames
                0x00000000000025fa      0x1fb /Users/dciliske/nndk/lib/NetBurner.a(arp.o)
 .debug_pubnames
                0x00000000000027f5      0x4a1 /Users/dciliske/nndk/lib/NetBurner.a(udp.o)
 .debug_pubnames
                0x0000000000002c96      0x26f /Users/dciliske/nndk/lib/NetBurner.a(autoip.o)
 .debug_pubnames
                0x0000000000002f05      0x5ed /Users/dciliske/nndk/lib/NetBurner.a(dhcpc.o)
 .debug_pubnames
                0x00000000000034f2       0x1e /Users/dciliske/nndk/lib/NetBurner.a(defappname.o)
 .debug_pubnames
                0x0000000000003510       0x55 /Users/dciliske/nndk/lib/NetBurner.a(taskmon.o)
 .debug_pubnames
                0x0000000000003565       0xd8 /Users/dciliske/nndk/lib/NetBurner.a(autoupdate.o)
 .debug_pubnames
                0x000000000000363d       0x3d /Users/dciliske/nndk/lib/NetBurner.a(nbsiprintf.o)
 .debug_pubnames
                0x000000000000367a       0x23 /Users/dciliske/nndk/lib/NetBurner.a(new_ops.o)
 .debug_pubnames
                0x000000000000369d       0x67 /Users/dciliske/nndk/lib/MOD5441X.a(localio.o)
 .debug_pubnames
                0x0000000000003704      0x3d6 /Users/dciliske/nndk/lib/MOD5441X.a(serial.o)
 .debug_pubnames
                0x0000000000003ada      0x42b /Users/dciliske/nndk/lib/MOD5441X.a(ethernet.o)
 .debug_pubnames
                0x0000000000003f05      0x131 /Users/dciliske/nndk/lib/MOD5441X.a(etherprint.o)
 .debug_pubnames
                0x0000000000004036       0x71 /Users/dciliske/nndk/lib/MOD5441X.a(emulticast.o)
 .debug_pubnames
                0x00000000000040a7       0x7e /Users/dciliske/nndk/lib/MOD5441X.a(ether2nd.o)
 .debug_pubnames
                0x0000000000004125      0x102 /Users/dciliske/nndk/lib/MOD5441X.a(etherswitch.o)
 .debug_pubnames
                0x0000000000004227       0x29 /Users/dciliske/nndk/lib/MOD5441X.a(weak_autoenet_var.o)
 .debug_pubnames
                0x0000000000004250       0xd8 /Users/dciliske/nndk/lib/NetBurner.a(extraio.o)
 .debug_pubnames
                0x0000000000004328       0x1e /Users/dciliske/nndk/lib/NetBurner.a(netrx.o)
 .debug_pubnames
                0x0000000000004346       0x27 /Users/dciliske/nndk/lib/NetBurner.a(multiconfig.o)
 .debug_pubnames
                0x000000000000436d       0x23 /Applications/NetBurner/gcc-m68k/bin/../lib/gcc/m68k-elf/4.2.1/m5206e/libgcc.a(_fixunsdfsi.o)
 .debug_pubnames
                0x0000000000004390       0x20 /Applications/NetBurner/gcc-m68k/bin/../lib/gcc/m68k-elf/4.2.1/m5206e/libgcc.a(_udivdi3.o)
 .debug_pubnames
                0x00000000000043b0       0x20 /Applications/NetBurner/gcc-m68k/bin/../lib/gcc/m68k-elf/4.2.1/m5206e/libgcc.a(_umoddi3.o)
 .debug_pubnames
                0x00000000000043d0       0xb3 /Applications/NetBurner/gcc-m68k/bin/../lib/gcc/m68k-elf/4.2.1/m5206e/libgcc.a(fpgnulib.o)
 .debug_pubnames
                0x0000000000004483       0x20 /Applications/NetBurner/gcc-m68k/bin/../lib/gcc/m68k-elf/4.2.1/m5206e/libgcc.a(_clz.o)
 .debug_pubnames
                0x00000000000044a3       0x23 /Applications/NetBurner/gcc-m68k/bin/../lib/gcc/m68k-elf/4.2.1/../../../../m68k-elf/lib/m5206e/libc.a(lib_a-cxa_atexit.o)
 .debug_pubnames
                0x00000000000044c6       0x1e /Applications/NetBurner/gcc-m68k/bin/../lib/gcc/m68k-elf/4.2.1/../../../../m68k-elf/lib/m5206e/libc.a(lib_a-errno.o)
 .debug_pubnames
                0x00000000000044e4       0x1f /Applications/NetBurner/gcc-m68k/bin/../lib/gcc/m68k-elf/4.2.1/../../../../m68k-elf/lib/m5206e/libc.a(lib_a-fiprintf.o)
 .debug_pubnames
                0x0000000000004503       0x39 /Applications/NetBurner/gcc-m68k/bin/../lib/gcc/m68k-elf/4.2.1/../../../../m68k-elf/lib/m5206e/libc.a(lib_a-impure.o)
 .debug_pubnames
                0x000000000000453c       0x26 /Applications/NetBurner/gcc-m68k/bin/../lib/gcc/m68k-elf/4.2.1/../../../../m68k-elf/lib/m5206e/libc.a(lib_a-malloc.o)
 .debug_pubnames
                0x0000000000004562       0xce /Applications/NetBurner/gcc-m68k/bin/../lib/gcc/m68k-elf/4.2.1/../../../../m68k-elf/lib/m5206e/libc.a(lib_a-mallocr.o)
 .debug_pubnames
                0x0000000000004630       0x27 /Applications/NetBurner/gcc-m68k/bin/../lib/gcc/m68k-elf/4.2.1/../../../../m68k-elf/lib/m5206e/libc.a(lib_a-puts.o)
 .debug_pubnames
                0x0000000000004657       0x25 /Applications/NetBurner/gcc-m68k/bin/../lib/gcc/m68k-elf/4.2.1/../../../../m68k-elf/lib/m5206e/libc.a(lib_a-rand.o)
 .debug_pubnames
                0x000000000000467c       0x2c /Applications/NetBurner/gcc-m68k/bin/../lib/gcc/m68k-elf/4.2.1/../../../../m68k-elf/lib/m5206e/libc.a(lib_a-rget.o)
 .debug_pubnames
                0x00000000000046a8       0x1e /Applications/NetBurner/gcc-m68k/bin/../lib/gcc/m68k-elf/4.2.1/../../../../m68k-elf/lib/m5206e/libc.a(lib_a-setvbuf.o)
 .debug_pubnames
                0x00000000000046c6       0x1d /Applications/NetBurner/gcc-m68k/bin/../lib/gcc/m68k-elf/4.2.1/../../../../m68k-elf/lib/m5206e/libc.a(lib_a-strlen.o)
 .debug_pubnames
                0x00000000000046e3       0x31 /Applications/NetBurner/gcc-m68k/bin/../lib/gcc/m68k-elf/4.2.1/../../../../m68k-elf/lib/m5206e/libc.a(lib_a-vfiprintf.o)
 .debug_pubnames
                0x0000000000004714       0x2c /Applications/NetBurner/gcc-m68k/bin/../lib/gcc/m68k-elf/4.2.1/../../../../m68k-elf/lib/m5206e/libc.a(lib_a-wbuf.o)
 .debug_pubnames
                0x0000000000004740       0x2d /Applications/NetBurner/gcc-m68k/bin/../lib/gcc/m68k-elf/4.2.1/../../../../m68k-elf/lib/m5206e/libc.a(lib_a-wcrtomb.o)
 .debug_pubnames
                0x000000000000476d       0x31 /Applications/NetBurner/gcc-m68k/bin/../lib/gcc/m68k-elf/4.2.1/../../../../m68k-elf/lib/m5206e/libc.a(lib_a-wcsrtombs.o)
 .debug_pubnames
                0x000000000000479e       0x20 /Applications/NetBurner/gcc-m68k/bin/../lib/gcc/m68k-elf/4.2.1/../../../../m68k-elf/lib/m5206e/libc.a(lib_a-wctomb_r.o)
 .debug_pubnames
                0x00000000000047be       0x20 /Applications/NetBurner/gcc-m68k/bin/../lib/gcc/m68k-elf/4.2.1/../../../../m68k-elf/lib/m5206e/libc.a(lib_a-wsetup.o)
 .debug_pubnames
                0x00000000000047de       0x2a /Applications/NetBurner/gcc-m68k/bin/../lib/gcc/m68k-elf/4.2.1/../../../../m68k-elf/lib/m5206e/libc.a(lib_a-__atexit.o)
 .debug_pubnames
                0x0000000000004808       0x1d /Applications/NetBurner/gcc-m68k/bin/../lib/gcc/m68k-elf/4.2.1/../../../../m68k-elf/lib/m5206e/libc.a(lib_a-fflush.o)
 .debug_pubnames
                0x0000000000004825       0x55 /Applications/NetBurner/gcc-m68k/bin/../lib/gcc/m68k-elf/4.2.1/../../../../m68k-elf/lib/m5206e/libc.a(lib_a-findfp.o)
 .debug_pubnames
                0x000000000000487a       0x31 /Applications/NetBurner/gcc-m68k/bin/../lib/gcc/m68k-elf/4.2.1/../../../../m68k-elf/lib/m5206e/libc.a(lib_a-freer.o)
 .debug_pubnames
                0x00000000000048ab       0x23 /Applications/NetBurner/gcc-m68k/bin/../lib/gcc/m68k-elf/4.2.1/../../../../m68k-elf/lib/m5206e/libc.a(lib_a-fvwrite.o)
 .debug_pubnames
                0x00000000000048ce       0x2e /Applications/NetBurner/gcc-m68k/bin/../lib/gcc/m68k-elf/4.2.1/../../../../m68k-elf/lib/m5206e/libc.a(lib_a-fwalk.o)
 .debug_pubnames
                0x00000000000048fc       0xc3 /Applications/NetBurner/gcc-m68k/bin/../lib/gcc/m68k-elf/4.2.1/../../../../m68k-elf/lib/m5206e/libc.a(lib_a-locale.o)
 .debug_pubnames
                0x00000000000049bf       0x21 /Applications/NetBurner/gcc-m68k/bin/../lib/gcc/m68k-elf/4.2.1/../../../../m68k-elf/lib/m5206e/libc.a(lib_a-makebuf.o)
 .debug_pubnames
                0x00000000000049e0       0x1d /Applications/NetBurner/gcc-m68k/bin/../lib/gcc/m68k-elf/4.2.1/../../../../m68k-elf/lib/m5206e/libc.a(lib_a-memchr.o)
 .debug_pubnames
                0x00000000000049fd       0x1e /Applications/NetBurner/gcc-m68k/bin/../lib/gcc/m68k-elf/4.2.1/../../../../m68k-elf/lib/m5206e/libc.a(lib_a-memmove.o)
 .debug_pubnames
                0x0000000000004a1b       0x21 /Applications/NetBurner/gcc-m68k/bin/../lib/gcc/m68k-elf/4.2.1/../../../../m68k-elf/lib/m5206e/libc.a(lib_a-reallocr.o)
 .debug_pubnames
                0x0000000000004a3c       0x22 /Applications/NetBurner/gcc-m68k/bin/../lib/gcc/m68k-elf/4.2.1/../../../../m68k-elf/lib/m5206e/libc.a(lib_a-refill.o)
 .debug_pubnames
                0x0000000000004a5e       0x44 /Applications/NetBurner/gcc-m68k/bin/../lib/gcc/m68k-elf/4.2.1/../../../../m68k-elf/lib/m5206e/libc.a(lib_a-stdio.o)
 .debug_pubnames
                0x0000000000004aa2       0x1d /Applications/NetBurner/gcc-m68k/bin/../lib/gcc/m68k-elf/4.2.1/../../../../m68k-elf/lib/m5206e/libc.a(lib_a-strcmp.o)
 .debug_pubnames
                0x0000000000004abf       0x1f /Applications/NetBurner/gcc-m68k/bin/../lib/gcc/m68k-elf/4.2.1/../../../../m68k-elf/lib/m5206e/libc.a(lib_a-writer.o)
 .debug_pubnames
                0x0000000000004ade       0x1f /Applications/NetBurner/gcc-m68k/bin/../lib/gcc/m68k-elf/4.2.1/../../../../m68k-elf/lib/m5206e/libc.a(lib_a-closer.o)
 .debug_pubnames
                0x0000000000004afd       0x2b /Applications/NetBurner/gcc-m68k/bin/../lib/gcc/m68k-elf/4.2.1/../../../../m68k-elf/lib/m5206e/libc.a(lib_a-fclose.o)
 .debug_pubnames
                0x0000000000004b28       0x1f /Applications/NetBurner/gcc-m68k/bin/../lib/gcc/m68k-elf/4.2.1/../../../../m68k-elf/lib/m5206e/libc.a(lib_a-fstatr.o)
 .debug_pubnames
                0x0000000000004b47       0x1f /Applications/NetBurner/gcc-m68k/bin/../lib/gcc/m68k-elf/4.2.1/../../../../m68k-elf/lib/m5206e/libc.a(lib_a-lseekr.o)
 .debug_pubnames
                0x0000000000004b66       0x1e /Applications/NetBurner/gcc-m68k/bin/../lib/gcc/m68k-elf/4.2.1/../../../../m68k-elf/lib/m5206e/libc.a(lib_a-readr.o)
 .debug_pubnames
                0x0000000000004b84       0x1f /Applications/NetBurner/gcc-m68k/bin/../lib/gcc/m68k-elf/4.2.1/m5206e/libgcc.a(_muldi3.o)

.debug_info     0x0000000000000000    0x5f1c4
 *(.debug_info)
 .debug_info    0x0000000000000000      0x5e7 ./main.o
 .debug_info    0x00000000000005e7     0x4089 ./stepper.o
 .debug_info    0x0000000000004670     0x537e /Users/dciliske/nndk/lib/MOD5441X.a(bsp.o)
 .debug_info    0x00000000000099ee     0x1464 /Users/dciliske/nndk/lib/MOD5441X.a(flash.o)
 .debug_info    0x000000000000ae52     0x15cd /Users/dciliske/nndk/lib/MOD5441X.a(pins.o)
 .debug_info    0x000000000000c41f     0x12cb /Users/dciliske/nndk/lib/NetBurner.a(ucos.o)
 .debug_info    0x000000000000d6ea      0x1a9 /Users/dciliske/nndk/lib/NetBurner.a(debugtrap.o)
 .debug_info    0x000000000000d893      0xca8 /Users/dciliske/nndk/lib/NetBurner.a(ucosmain.o)
 .debug_info    0x000000000000e53b      0xf33 /Users/dciliske/nndk/lib/NetBurner.a(fileio.o)
 .debug_info    0x000000000000f46e      0x118 /Users/dciliske/nndk/lib/NetBurner.a(main.o)
 .debug_info    0x000000000000f586     0x4f1e /Users/dciliske/nndk/lib/NetBurner.a(tcp.o)
 .debug_info    0x00000000000144a4      0x8e1 /Users/dciliske/nndk/lib/NetBurner.a(iosys.o)
 .debug_info    0x0000000000014d85     0x127b /Users/dciliske/nndk/lib/NetBurner.a(netinterface.o)
 .debug_info    0x0000000000016000      0x4fa /Users/dciliske/nndk/lib/NetBurner.a(smarttrap.o)
 .debug_info    0x00000000000164fa      0x14a /Users/dciliske/nndk/lib/NetBurner.a(device.o)
 .debug_info    0x0000000000016644       0xcf /Users/dciliske/nndk/lib/NetBurner.a(release_tag.o)
 .debug_info    0x0000000000016713       0x75 /Users/dciliske/nndk/lib/NetBurner.a(release_tagdata.o)
 .debug_info    0x0000000000016788      0x257 /Users/dciliske/nndk/lib/NetBurner.a(init.o)
 .debug_info    0x00000000000169df      0xb52 /Users/dciliske/nndk/lib/NetBurner.a(nbiprintf.o)
 .debug_info    0x0000000000017531      0x3a4 /Users/dciliske/nndk/lib/NetBurner.a(ucosmcfc.o)
 .debug_info    0x00000000000178d5      0xe23 /Users/dciliske/nndk/lib/NetBurner.a(system.o)
 .debug_info    0x00000000000186f8     0x1310 /Users/dciliske/nndk/lib/NetBurner.a(utils.o)
 .debug_info    0x0000000000019a08     0x23bb /Users/dciliske/nndk/lib/NetBurner.a(ip.o)
 .debug_info    0x000000000001bdc3     0x10b2 /Users/dciliske/nndk/lib/NetBurner.a(buffers.o)
 .debug_info    0x000000000001ce75     0x21d1 /Users/dciliske/nndk/lib/NetBurner.a(arp.o)
 .debug_info    0x000000000001f046     0x236c /Users/dciliske/nndk/lib/NetBurner.a(udp.o)
 .debug_info    0x00000000000213b2     0x104b /Users/dciliske/nndk/lib/NetBurner.a(autoip.o)
 .debug_info    0x00000000000223fd     0x3c5a /Users/dciliske/nndk/lib/NetBurner.a(dhcpc.o)
 .debug_info    0x0000000000026057       0x4a /Users/dciliske/nndk/lib/NetBurner.a(defappname.o)
 .debug_info    0x00000000000260a1      0xa31 /Users/dciliske/nndk/lib/NetBurner.a(taskmon.o)
 .debug_info    0x0000000000026ad2      0xb97 /Users/dciliske/nndk/lib/NetBurner.a(autoupdate.o)
 .debug_info    0x0000000000027669      0x228 /Users/dciliske/nndk/lib/NetBurner.a(nbsiprintf.o)
 .debug_info    0x0000000000027891      0x429 /Users/dciliske/nndk/lib/NetBurner.a(new_ops.o)
 .debug_info    0x0000000000027cba     0x4a0a /Users/dciliske/nndk/lib/MOD5441X.a(localio.o)
 .debug_info    0x000000000002c6c4     0x638f /Users/dciliske/nndk/lib/MOD5441X.a(serial.o)
 .debug_info    0x0000000000032a53     0x65ee /Users/dciliske/nndk/lib/MOD5441X.a(ethernet.o)
 .debug_info    0x0000000000039041     0x515c /Users/dciliske/nndk/lib/MOD5441X.a(etherprint.o)
 .debug_info    0x000000000003e19d     0x43bb /Users/dciliske/nndk/lib/MOD5441X.a(emulticast.o)
 .debug_info    0x0000000000042558     0x1467 /Users/dciliske/nndk/lib/MOD5441X.a(ether2nd.o)
 .debug_info    0x00000000000439bf     0x4798 /Users/dciliske/nndk/lib/MOD5441X.a(etherswitch.o)
 .debug_info    0x0000000000048157       0x44 /Users/dciliske/nndk/lib/MOD5441X.a(weak_autoenet_var.o)
 .debug_info    0x000000000004819b      0x481 /Users/dciliske/nndk/lib/NetBurner.a(extraio.o)
 .debug_info    0x000000000004861c      0x3e9 /Users/dciliske/nndk/lib/NetBurner.a(netrx.o)
 .debug_info    0x0000000000048a05      0xd3d /Users/dciliske/nndk/lib/NetBurner.a(multiconfig.o)
 .debug_info    0x0000000000049742       0x83 /Applications/NetBurner/gcc-m68k/bin/../lib/gcc/m68k-elf/4.2.1/m5206e/libgcc.a(_double.o)
 .debug_info    0x00000000000497c5       0x83 /Applications/NetBurner/gcc-m68k/bin/../lib/gcc/m68k-elf/4.2.1/m5206e/libgcc.a(_floatex.o)
 .debug_info    0x0000000000049848       0xd1 /Applications/NetBurner/gcc-m68k/bin/../lib/gcc/m68k-elf/4.2.1/m5206e/libgcc.a(_fixunsdfsi.o)
 .debug_info    0x0000000000049919      0x615 /Applications/NetBurner/gcc-m68k/bin/../lib/gcc/m68k-elf/4.2.1/m5206e/libgcc.a(_udivdi3.o)
 .debug_info    0x0000000000049f2e      0x601 /Applications/NetBurner/gcc-m68k/bin/../lib/gcc/m68k-elf/4.2.1/m5206e/libgcc.a(_umoddi3.o)
 .debug_info    0x000000000004a52f      0x3e0 /Applications/NetBurner/gcc-m68k/bin/../lib/gcc/m68k-elf/4.2.1/m5206e/libgcc.a(fpgnulib.o)
 .debug_info    0x000000000004a90f       0x83 /Applications/NetBurner/gcc-m68k/bin/../lib/gcc/m68k-elf/4.2.1/m5206e/libgcc.a(_gedf2.o)
 .debug_info    0x000000000004a992       0xc5 /Applications/NetBurner/gcc-m68k/bin/../lib/gcc/m68k-elf/4.2.1/m5206e/libgcc.a(_clz.o)
 .debug_info    0x000000000004aa57       0xe7 /Applications/NetBurner/gcc-m68k/bin/../lib/gcc/m68k-elf/4.2.1/../../../../m68k-elf/lib/m5206e/libc.a(lib_a-cxa_atexit.o)
 .debug_info    0x000000000004ab3e      0x8ed /Applications/NetBurner/gcc-m68k/bin/../lib/gcc/m68k-elf/4.2.1/../../../../m68k-elf/lib/m5206e/libc.a(lib_a-errno.o)
 .debug_info    0x000000000004b42b      0x946 /Applications/NetBurner/gcc-m68k/bin/../lib/gcc/m68k-elf/4.2.1/../../../../m68k-elf/lib/m5206e/libc.a(lib_a-fiprintf.o)
 .debug_info    0x000000000004bd71      0x8fa /Applications/NetBurner/gcc-m68k/bin/../lib/gcc/m68k-elf/4.2.1/../../../../m68k-elf/lib/m5206e/libc.a(lib_a-impure.o)
 .debug_info    0x000000000004c66b      0x92d /Applications/NetBurner/gcc-m68k/bin/../lib/gcc/m68k-elf/4.2.1/../../../../m68k-elf/lib/m5206e/libc.a(lib_a-malloc.o)
 .debug_info    0x000000000004cf98      0xc90 /Applications/NetBurner/gcc-m68k/bin/../lib/gcc/m68k-elf/4.2.1/../../../../m68k-elf/lib/m5206e/libc.a(lib_a-mallocr.o)
 .debug_info    0x000000000004dc28      0x9e8 /Applications/NetBurner/gcc-m68k/bin/../lib/gcc/m68k-elf/4.2.1/../../../../m68k-elf/lib/m5206e/libc.a(lib_a-puts.o)
 .debug_info    0x000000000004e610      0x90f /Applications/NetBurner/gcc-m68k/bin/../lib/gcc/m68k-elf/4.2.1/../../../../m68k-elf/lib/m5206e/libc.a(lib_a-rand.o)
 .debug_info    0x000000000004ef1f      0x94c /Applications/NetBurner/gcc-m68k/bin/../lib/gcc/m68k-elf/4.2.1/../../../../m68k-elf/lib/m5206e/libc.a(lib_a-rget.o)
 .debug_info    0x000000000004f86b      0x964 /Applications/NetBurner/gcc-m68k/bin/../lib/gcc/m68k-elf/4.2.1/../../../../m68k-elf/lib/m5206e/libc.a(lib_a-setvbuf.o)
 .debug_info    0x00000000000501cf       0xc4 /Applications/NetBurner/gcc-m68k/bin/../lib/gcc/m68k-elf/4.2.1/../../../../m68k-elf/lib/m5206e/libc.a(lib_a-strlen.o)
 .debug_info    0x0000000000050293      0xe1f /Applications/NetBurner/gcc-m68k/bin/../lib/gcc/m68k-elf/4.2.1/../../../../m68k-elf/lib/m5206e/libc.a(lib_a-vfiprintf.o)
 .debug_info    0x00000000000510b2      0x972 /Applications/NetBurner/gcc-m68k/bin/../lib/gcc/m68k-elf/4.2.1/../../../../m68k-elf/lib/m5206e/libc.a(lib_a-wbuf.o)
 .debug_info    0x0000000000051a24      0x9c3 /Applications/NetBurner/gcc-m68k/bin/../lib/gcc/m68k-elf/4.2.1/../../../../m68k-elf/lib/m5206e/libc.a(lib_a-wcrtomb.o)
 .debug_info    0x00000000000523e7      0xa54 /Applications/NetBurner/gcc-m68k/bin/../lib/gcc/m68k-elf/4.2.1/../../../../m68k-elf/lib/m5206e/libc.a(lib_a-wcsrtombs.o)
 .debug_info    0x0000000000052e3b      0x9be /Applications/NetBurner/gcc-m68k/bin/../lib/gcc/m68k-elf/4.2.1/../../../../m68k-elf/lib/m5206e/libc.a(lib_a-wctomb_r.o)
 .debug_info    0x00000000000537f9      0x912 /Applications/NetBurner/gcc-m68k/bin/../lib/gcc/m68k-elf/4.2.1/../../../../m68k-elf/lib/m5206e/libc.a(lib_a-wsetup.o)
 .debug_info    0x000000000005410b      0x967 /Applications/NetBurner/gcc-m68k/bin/../lib/gcc/m68k-elf/4.2.1/../../../../m68k-elf/lib/m5206e/libc.a(lib_a-__atexit.o)
 .debug_info    0x0000000000054a72      0x976 /Applications/NetBurner/gcc-m68k/bin/../lib/gcc/m68k-elf/4.2.1/../../../../m68k-elf/lib/m5206e/libc.a(lib_a-fflush.o)
 .debug_info    0x00000000000553e8      0xa50 /Applications/NetBurner/gcc-m68k/bin/../lib/gcc/m68k-elf/4.2.1/../../../../m68k-elf/lib/m5206e/libc.a(lib_a-findfp.o)
 .debug_info    0x0000000000055e38      0xb8d /Applications/NetBurner/gcc-m68k/bin/../lib/gcc/m68k-elf/4.2.1/../../../../m68k-elf/lib/m5206e/libc.a(lib_a-freer.o)
 .debug_info    0x00000000000569c5      0xa50 /Applications/NetBurner/gcc-m68k/bin/../lib/gcc/m68k-elf/4.2.1/../../../../m68k-elf/lib/m5206e/libc.a(lib_a-fvwrite.o)
 .debug_info    0x0000000000057415      0xab1 /Applications/NetBurner/gcc-m68k/bin/../lib/gcc/m68k-elf/4.2.1/../../../../m68k-elf/lib/m5206e/libc.a(lib_a-fwalk.o)
 .debug_info    0x0000000000057ec6      0xb5e /Applications/NetBurner/gcc-m68k/bin/../lib/gcc/m68k-elf/4.2.1/../../../../m68k-elf/lib/m5206e/libc.a(lib_a-locale.o)
 .debug_info    0x0000000000058a24      0xab4 /Applications/NetBurner/gcc-m68k/bin/../lib/gcc/m68k-elf/4.2.1/../../../../m68k-elf/lib/m5206e/libc.a(lib_a-makebuf.o)
 .debug_info    0x00000000000594d8      0x12f /Applications/NetBurner/gcc-m68k/bin/../lib/gcc/m68k-elf/4.2.1/../../../../m68k-elf/lib/m5206e/libc.a(lib_a-memchr.o)
 .debug_info    0x0000000000059607      0x13b /Applications/NetBurner/gcc-m68k/bin/../lib/gcc/m68k-elf/4.2.1/../../../../m68k-elf/lib/m5206e/libc.a(lib_a-memmove.o)
 .debug_info    0x0000000000059742      0xb93 /Applications/NetBurner/gcc-m68k/bin/../lib/gcc/m68k-elf/4.2.1/../../../../m68k-elf/lib/m5206e/libc.a(lib_a-reallocr.o)
 .debug_info    0x000000000005a2d5      0x95e /Applications/NetBurner/gcc-m68k/bin/../lib/gcc/m68k-elf/4.2.1/../../../../m68k-elf/lib/m5206e/libc.a(lib_a-refill.o)
 .debug_info    0x000000000005ac33      0xa45 /Applications/NetBurner/gcc-m68k/bin/../lib/gcc/m68k-elf/4.2.1/../../../../m68k-elf/lib/m5206e/libc.a(lib_a-stdio.o)
 .debug_info    0x000000000005b678       0xd6 /Applications/NetBurner/gcc-m68k/bin/../lib/gcc/m68k-elf/4.2.1/../../../../m68k-elf/lib/m5206e/libc.a(lib_a-strcmp.o)
 .debug_info    0x000000000005b74e      0x958 /Applications/NetBurner/gcc-m68k/bin/../lib/gcc/m68k-elf/4.2.1/../../../../m68k-elf/lib/m5206e/libc.a(lib_a-writer.o)
 .debug_info    0x000000000005c0a6      0x91d /Applications/NetBurner/gcc-m68k/bin/../lib/gcc/m68k-elf/4.2.1/../../../../m68k-elf/lib/m5206e/libc.a(lib_a-closer.o)
 .debug_info    0x000000000005c9c3      0x959 /Applications/NetBurner/gcc-m68k/bin/../lib/gcc/m68k-elf/4.2.1/../../../../m68k-elf/lib/m5206e/libc.a(lib_a-fclose.o)
 .debug_info    0x000000000005d31c      0xa95 /Applications/NetBurner/gcc-m68k/bin/../lib/gcc/m68k-elf/4.2.1/../../../../m68k-elf/lib/m5206e/libc.a(lib_a-fstatr.o)
 .debug_info    0x000000000005ddb1      0x946 /Applications/NetBurner/gcc-m68k/bin/../lib/gcc/m68k-elf/4.2.1/../../../../m68k-elf/lib/m5206e/libc.a(lib_a-lseekr.o)
 .debug_info    0x000000000005e6f7      0x951 /Applications/NetBurner/gcc-m68k/bin/../lib/gcc/m68k-elf/4.2.1/../../../../m68k-elf/lib/m5206e/libc.a(lib_a-readr.o)
 .debug_info    0x000000000005f048      0x17c /Applications/NetBurner/gcc-m68k/bin/../lib/gcc/m68k-elf/4.2.1/m5206e/libgcc.a(_muldi3.o)

.debug_abbrev   0x0000000000000000     0xaa79
 *(.debug_abbrev)
 .debug_abbrev  0x0000000000000000      0x25e ./main.o
 .debug_abbrev  0x000000000000025e      0x319 ./stepper.o
 .debug_abbrev  0x0000000000000577      0x2e5 /Users/dciliske/nndk/lib/MOD5441X.a(bsp.o)
 .debug_abbrev  0x000000000000085c      0x1c3 /Users/dciliske/nndk/lib/MOD5441X.a(flash.o)
 .debug_abbrev  0x0000000000000a1f      0x2b9 /Users/dciliske/nndk/lib/MOD5441X.a(pins.o)
 .debug_abbrev  0x0000000000000cd8      0x263 /Users/dciliske/nndk/lib/NetBurner.a(ucos.o)
 .debug_abbrev  0x0000000000000f3b       0x96 /Users/dciliske/nndk/lib/NetBurner.a(debugtrap.o)
 .debug_abbrev  0x0000000000000fd1      0x211 /Users/dciliske/nndk/lib/NetBurner.a(ucosmain.o)
 .debug_abbrev  0x00000000000011e2      0x2a4 /Users/dciliske/nndk/lib/NetBurner.a(fileio.o)
 .debug_abbrev  0x0000000000001486       0xcf /Users/dciliske/nndk/lib/NetBurner.a(main.o)
 .debug_abbrev  0x0000000000001555      0x619 /Users/dciliske/nndk/lib/NetBurner.a(tcp.o)
 .debug_abbrev  0x0000000000001b6e      0x2cf /Users/dciliske/nndk/lib/NetBurner.a(iosys.o)
 .debug_abbrev  0x0000000000001e3d      0x30b /Users/dciliske/nndk/lib/NetBurner.a(netinterface.o)
 .debug_abbrev  0x0000000000002148      0x1b5 /Users/dciliske/nndk/lib/NetBurner.a(smarttrap.o)
 .debug_abbrev  0x00000000000022fd       0xbc /Users/dciliske/nndk/lib/NetBurner.a(device.o)
 .debug_abbrev  0x00000000000023b9       0x9e /Users/dciliske/nndk/lib/NetBurner.a(release_tag.o)
 .debug_abbrev  0x0000000000002457       0x52 /Users/dciliske/nndk/lib/NetBurner.a(release_tagdata.o)
 .debug_abbrev  0x00000000000024a9       0xba /Users/dciliske/nndk/lib/NetBurner.a(init.o)
 .debug_abbrev  0x0000000000002563      0x249 /Users/dciliske/nndk/lib/NetBurner.a(nbiprintf.o)
 .debug_abbrev  0x00000000000027ac      0x13c /Users/dciliske/nndk/lib/NetBurner.a(ucosmcfc.o)
 .debug_abbrev  0x00000000000028e8      0x283 /Users/dciliske/nndk/lib/NetBurner.a(system.o)
 .debug_abbrev  0x0000000000002b6b      0x36b /Users/dciliske/nndk/lib/NetBurner.a(utils.o)
 .debug_abbrev  0x0000000000002ed6      0x4c3 /Users/dciliske/nndk/lib/NetBurner.a(ip.o)
 .debug_abbrev  0x0000000000003399      0x32e /Users/dciliske/nndk/lib/NetBurner.a(buffers.o)
 .debug_abbrev  0x00000000000036c7      0x48b /Users/dciliske/nndk/lib/NetBurner.a(arp.o)
 .debug_abbrev  0x0000000000003b52      0x452 /Users/dciliske/nndk/lib/NetBurner.a(udp.o)
 .debug_abbrev  0x0000000000003fa4      0x335 /Users/dciliske/nndk/lib/NetBurner.a(autoip.o)
 .debug_abbrev  0x00000000000042d9      0x4f4 /Users/dciliske/nndk/lib/NetBurner.a(dhcpc.o)
 .debug_abbrev  0x00000000000047cd       0x40 /Users/dciliske/nndk/lib/NetBurner.a(defappname.o)
 .debug_abbrev  0x000000000000480d      0x265 /Users/dciliske/nndk/lib/NetBurner.a(taskmon.o)
 .debug_abbrev  0x0000000000004a72      0x2c6 /Users/dciliske/nndk/lib/NetBurner.a(autoupdate.o)
 .debug_abbrev  0x0000000000004d38      0x121 /Users/dciliske/nndk/lib/NetBurner.a(nbsiprintf.o)
 .debug_abbrev  0x0000000000004e59      0x132 /Users/dciliske/nndk/lib/NetBurner.a(new_ops.o)
 .debug_abbrev  0x0000000000004f8b      0x1a8 /Users/dciliske/nndk/lib/MOD5441X.a(localio.o)
 .debug_abbrev  0x0000000000005133      0x47f /Users/dciliske/nndk/lib/MOD5441X.a(serial.o)
 .debug_abbrev  0x00000000000055b2      0x4a2 /Users/dciliske/nndk/lib/MOD5441X.a(ethernet.o)
 .debug_abbrev  0x0000000000005a54      0x262 /Users/dciliske/nndk/lib/MOD5441X.a(etherprint.o)
 .debug_abbrev  0x0000000000005cb6      0x237 /Users/dciliske/nndk/lib/MOD5441X.a(emulticast.o)
 .debug_abbrev  0x0000000000005eed      0x2ca /Users/dciliske/nndk/lib/MOD5441X.a(ether2nd.o)
 .debug_abbrev  0x00000000000061b7      0x2e0 /Users/dciliske/nndk/lib/MOD5441X.a(etherswitch.o)
 .debug_abbrev  0x0000000000006497       0x37 /Users/dciliske/nndk/lib/MOD5441X.a(weak_autoenet_var.o)
 .debug_abbrev  0x00000000000064ce      0x197 /Users/dciliske/nndk/lib/NetBurner.a(extraio.o)
 .debug_abbrev  0x0000000000006665      0x139 /Users/dciliske/nndk/lib/NetBurner.a(netrx.o)
 .debug_abbrev  0x000000000000679e      0x23f /Users/dciliske/nndk/lib/NetBurner.a(multiconfig.o)
 .debug_abbrev  0x00000000000069dd       0x14 /Applications/NetBurner/gcc-m68k/bin/../lib/gcc/m68k-elf/4.2.1/m5206e/libgcc.a(_double.o)
 .debug_abbrev  0x00000000000069f1       0x14 /Applications/NetBurner/gcc-m68k/bin/../lib/gcc/m68k-elf/4.2.1/m5206e/libgcc.a(_floatex.o)
 .debug_abbrev  0x0000000000006a05       0x66 /Applications/NetBurner/gcc-m68k/bin/../lib/gcc/m68k-elf/4.2.1/m5206e/libgcc.a(_fixunsdfsi.o)
 .debug_abbrev  0x0000000000006a6b      0x169 /Applications/NetBurner/gcc-m68k/bin/../lib/gcc/m68k-elf/4.2.1/m5206e/libgcc.a(_udivdi3.o)
 .debug_abbrev  0x0000000000006bd4      0x17d /Applications/NetBurner/gcc-m68k/bin/../lib/gcc/m68k-elf/4.2.1/m5206e/libgcc.a(_umoddi3.o)
 .debug_abbrev  0x0000000000006d51      0x160 /Applications/NetBurner/gcc-m68k/bin/../lib/gcc/m68k-elf/4.2.1/m5206e/libgcc.a(fpgnulib.o)
 .debug_abbrev  0x0000000000006eb1       0x14 /Applications/NetBurner/gcc-m68k/bin/../lib/gcc/m68k-elf/4.2.1/m5206e/libgcc.a(_gedf2.o)
 .debug_abbrev  0x0000000000006ec5       0x6a /Applications/NetBurner/gcc-m68k/bin/../lib/gcc/m68k-elf/4.2.1/m5206e/libgcc.a(_clz.o)
 .debug_abbrev  0x0000000000006f2f       0x93 /Applications/NetBurner/gcc-m68k/bin/../lib/gcc/m68k-elf/4.2.1/../../../../m68k-elf/lib/m5206e/libc.a(lib_a-cxa_atexit.o)
 .debug_abbrev  0x0000000000006fc2      0x168 /Applications/NetBurner/gcc-m68k/bin/../lib/gcc/m68k-elf/4.2.1/../../../../m68k-elf/lib/m5206e/libc.a(lib_a-errno.o)
 .debug_abbrev  0x000000000000712a      0x192 /Applications/NetBurner/gcc-m68k/bin/../lib/gcc/m68k-elf/4.2.1/../../../../m68k-elf/lib/m5206e/libc.a(lib_a-fiprintf.o)
 .debug_abbrev  0x00000000000072bc      0x160 /Applications/NetBurner/gcc-m68k/bin/../lib/gcc/m68k-elf/4.2.1/../../../../m68k-elf/lib/m5206e/libc.a(lib_a-impure.o)
 .debug_abbrev  0x000000000000741c      0x190 /Applications/NetBurner/gcc-m68k/bin/../lib/gcc/m68k-elf/4.2.1/../../../../m68k-elf/lib/m5206e/libc.a(lib_a-malloc.o)
 .debug_abbrev  0x00000000000075ac      0x21f /Applications/NetBurner/gcc-m68k/bin/../lib/gcc/m68k-elf/4.2.1/../../../../m68k-elf/lib/m5206e/libc.a(lib_a-mallocr.o)
 .debug_abbrev  0x00000000000077cb      0x19c /Applications/NetBurner/gcc-m68k/bin/../lib/gcc/m68k-elf/4.2.1/../../../../m68k-elf/lib/m5206e/libc.a(lib_a-puts.o)
 .debug_abbrev  0x0000000000007967      0x18e /Applications/NetBurner/gcc-m68k/bin/../lib/gcc/m68k-elf/4.2.1/../../../../m68k-elf/lib/m5206e/libc.a(lib_a-rand.o)
 .debug_abbrev  0x0000000000007af5      0x188 /Applications/NetBurner/gcc-m68k/bin/../lib/gcc/m68k-elf/4.2.1/../../../../m68k-elf/lib/m5206e/libc.a(lib_a-rget.o)
 .debug_abbrev  0x0000000000007c7d      0x1a4 /Applications/NetBurner/gcc-m68k/bin/../lib/gcc/m68k-elf/4.2.1/../../../../m68k-elf/lib/m5206e/libc.a(lib_a-setvbuf.o)
 .debug_abbrev  0x0000000000007e21       0x85 /Applications/NetBurner/gcc-m68k/bin/../lib/gcc/m68k-elf/4.2.1/../../../../m68k-elf/lib/m5206e/libc.a(lib_a-strlen.o)
 .debug_abbrev  0x0000000000007ea6      0x31c /Applications/NetBurner/gcc-m68k/bin/../lib/gcc/m68k-elf/4.2.1/../../../../m68k-elf/lib/m5206e/libc.a(lib_a-vfiprintf.o)
 .debug_abbrev  0x00000000000081c2      0x197 /Applications/NetBurner/gcc-m68k/bin/../lib/gcc/m68k-elf/4.2.1/../../../../m68k-elf/lib/m5206e/libc.a(lib_a-wbuf.o)
 .debug_abbrev  0x0000000000008359      0x1a6 /Applications/NetBurner/gcc-m68k/bin/../lib/gcc/m68k-elf/4.2.1/../../../../m68k-elf/lib/m5206e/libc.a(lib_a-wcrtomb.o)
 .debug_abbrev  0x00000000000084ff      0x1c9 /Applications/NetBurner/gcc-m68k/bin/../lib/gcc/m68k-elf/4.2.1/../../../../m68k-elf/lib/m5206e/libc.a(lib_a-wcsrtombs.o)
 .debug_abbrev  0x00000000000086c8      0x1d0 /Applications/NetBurner/gcc-m68k/bin/../lib/gcc/m68k-elf/4.2.1/../../../../m68k-elf/lib/m5206e/libc.a(lib_a-wctomb_r.o)
 .debug_abbrev  0x0000000000008898      0x179 /Applications/NetBurner/gcc-m68k/bin/../lib/gcc/m68k-elf/4.2.1/../../../../m68k-elf/lib/m5206e/libc.a(lib_a-wsetup.o)
 .debug_abbrev  0x0000000000008a11      0x1bc /Applications/NetBurner/gcc-m68k/bin/../lib/gcc/m68k-elf/4.2.1/../../../../m68k-elf/lib/m5206e/libc.a(lib_a-__atexit.o)
 .debug_abbrev  0x0000000000008bcd      0x19e /Applications/NetBurner/gcc-m68k/bin/../lib/gcc/m68k-elf/4.2.1/../../../../m68k-elf/lib/m5206e/libc.a(lib_a-fflush.o)
 .debug_abbrev  0x0000000000008d6b      0x1f4 /Applications/NetBurner/gcc-m68k/bin/../lib/gcc/m68k-elf/4.2.1/../../../../m68k-elf/lib/m5206e/libc.a(lib_a-findfp.o)
 .debug_abbrev  0x0000000000008f5f      0x1e2 /Applications/NetBurner/gcc-m68k/bin/../lib/gcc/m68k-elf/4.2.1/../../../../m68k-elf/lib/m5206e/libc.a(lib_a-freer.o)
 .debug_abbrev  0x0000000000009141      0x1cc /Applications/NetBurner/gcc-m68k/bin/../lib/gcc/m68k-elf/4.2.1/../../../../m68k-elf/lib/m5206e/libc.a(lib_a-fvwrite.o)
 .debug_abbrev  0x000000000000930d      0x1ec /Applications/NetBurner/gcc-m68k/bin/../lib/gcc/m68k-elf/4.2.1/../../../../m68k-elf/lib/m5206e/libc.a(lib_a-fwalk.o)
 .debug_abbrev  0x00000000000094f9      0x1ff /Applications/NetBurner/gcc-m68k/bin/../lib/gcc/m68k-elf/4.2.1/../../../../m68k-elf/lib/m5206e/libc.a(lib_a-locale.o)
 .debug_abbrev  0x00000000000096f8      0x1a4 /Applications/NetBurner/gcc-m68k/bin/../lib/gcc/m68k-elf/4.2.1/../../../../m68k-elf/lib/m5206e/libc.a(lib_a-makebuf.o)
 .debug_abbrev  0x000000000000989c       0xbe /Applications/NetBurner/gcc-m68k/bin/../lib/gcc/m68k-elf/4.2.1/../../../../m68k-elf/lib/m5206e/libc.a(lib_a-memchr.o)
 .debug_abbrev  0x000000000000995a       0xa2 /Applications/NetBurner/gcc-m68k/bin/../lib/gcc/m68k-elf/4.2.1/../../../../m68k-elf/lib/m5206e/libc.a(lib_a-memmove.o)
 .debug_abbrev  0x00000000000099fc      0x1e2 /Applications/NetBurner/gcc-m68k/bin/../lib/gcc/m68k-elf/4.2.1/../../../../m68k-elf/lib/m5206e/libc.a(lib_a-reallocr.o)
 .debug_abbrev  0x0000000000009bde      0x19f /Applications/NetBurner/gcc-m68k/bin/../lib/gcc/m68k-elf/4.2.1/../../../../m68k-elf/lib/m5206e/libc.a(lib_a-refill.o)
 .debug_abbrev  0x0000000000009d7d      0x1d1 /Applications/NetBurner/gcc-m68k/bin/../lib/gcc/m68k-elf/4.2.1/../../../../m68k-elf/lib/m5206e/libc.a(lib_a-stdio.o)
 .debug_abbrev  0x0000000000009f4e       0x7a /Applications/NetBurner/gcc-m68k/bin/../lib/gcc/m68k-elf/4.2.1/../../../../m68k-elf/lib/m5206e/libc.a(lib_a-strcmp.o)
 .debug_abbrev  0x0000000000009fc8      0x19c /Applications/NetBurner/gcc-m68k/bin/../lib/gcc/m68k-elf/4.2.1/../../../../m68k-elf/lib/m5206e/libc.a(lib_a-writer.o)
 .debug_abbrev  0x000000000000a164      0x197 /Applications/NetBurner/gcc-m68k/bin/../lib/gcc/m68k-elf/4.2.1/../../../../m68k-elf/lib/m5206e/libc.a(lib_a-closer.o)
 .debug_abbrev  0x000000000000a2fb      0x1a6 /Applications/NetBurner/gcc-m68k/bin/../lib/gcc/m68k-elf/4.2.1/../../../../m68k-elf/lib/m5206e/libc.a(lib_a-fclose.o)
 .debug_abbrev  0x000000000000a4a1      0x1a6 /Applications/NetBurner/gcc-m68k/bin/../lib/gcc/m68k-elf/4.2.1/../../../../m68k-elf/lib/m5206e/libc.a(lib_a-fstatr.o)
 .debug_abbrev  0x000000000000a647      0x1a6 /Applications/NetBurner/gcc-m68k/bin/../lib/gcc/m68k-elf/4.2.1/../../../../m68k-elf/lib/m5206e/libc.a(lib_a-lseekr.o)
 .debug_abbrev  0x000000000000a7ed      0x197 /Applications/NetBurner/gcc-m68k/bin/../lib/gcc/m68k-elf/4.2.1/../../../../m68k-elf/lib/m5206e/libc.a(lib_a-readr.o)
 .debug_abbrev  0x000000000000a984       0xf5 /Applications/NetBurner/gcc-m68k/bin/../lib/gcc/m68k-elf/4.2.1/m5206e/libgcc.a(_muldi3.o)

.debug_line     0x0000000000000000     0xdc09
 *(.debug_line)
 .debug_line    0x0000000000000000       0xd3 ./main.o
 .debug_line    0x00000000000000d3      0x232 ./stepper.o
 .debug_line    0x0000000000000305      0x279 /Users/dciliske/nndk/lib/MOD5441X.a(bsp.o)
 .debug_line    0x000000000000057e       0xf6 /Users/dciliske/nndk/lib/MOD5441X.a(flash.o)
 .debug_line    0x0000000000000674      0x91e /Users/dciliske/nndk/lib/MOD5441X.a(pins.o)
 .debug_line    0x0000000000000f92      0x456 /Users/dciliske/nndk/lib/NetBurner.a(ucos.o)
 .debug_line    0x00000000000013e8       0x9f /Users/dciliske/nndk/lib/NetBurner.a(debugtrap.o)
 .debug_line    0x0000000000001487      0x23a /Users/dciliske/nndk/lib/NetBurner.a(ucosmain.o)
 .debug_line    0x00000000000016c1      0x2bd /Users/dciliske/nndk/lib/NetBurner.a(fileio.o)
 .debug_line    0x000000000000197e       0x70 /Users/dciliske/nndk/lib/NetBurner.a(main.o)
 .debug_line    0x00000000000019ee     0x1abf /Users/dciliske/nndk/lib/NetBurner.a(tcp.o)
 .debug_line    0x00000000000034ad      0x229 /Users/dciliske/nndk/lib/NetBurner.a(iosys.o)
 .debug_line    0x00000000000036d6      0x1b2 /Users/dciliske/nndk/lib/NetBurner.a(netinterface.o)
 .debug_line    0x0000000000003888      0x32a /Users/dciliske/nndk/lib/NetBurner.a(smarttrap.o)
 .debug_line    0x0000000000003bb2       0x7d /Users/dciliske/nndk/lib/NetBurner.a(device.o)
 .debug_line    0x0000000000003c2f       0x52 /Users/dciliske/nndk/lib/NetBurner.a(release_tag.o)
 .debug_line    0x0000000000003c81       0x34 /Users/dciliske/nndk/lib/NetBurner.a(release_tagdata.o)
 .debug_line    0x0000000000003cb5       0x7b /Users/dciliske/nndk/lib/NetBurner.a(init.o)
 .debug_line    0x0000000000003d30      0x538 /Users/dciliske/nndk/lib/NetBurner.a(nbiprintf.o)
 .debug_line    0x0000000000004268      0x149 /Users/dciliske/nndk/lib/NetBurner.a(ucosmcfc.o)
 .debug_line    0x00000000000043b1      0x257 /Users/dciliske/nndk/lib/NetBurner.a(system.o)
 .debug_line    0x0000000000004608      0x47d /Users/dciliske/nndk/lib/NetBurner.a(utils.o)
 .debug_line    0x0000000000004a85      0x6ec /Users/dciliske/nndk/lib/NetBurner.a(ip.o)
 .debug_line    0x0000000000005171      0x441 /Users/dciliske/nndk/lib/NetBurner.a(buffers.o)
 .debug_line    0x00000000000055b2      0x8ea /Users/dciliske/nndk/lib/NetBurner.a(arp.o)
 .debug_line    0x0000000000005e9c      0x611 /Users/dciliske/nndk/lib/NetBurner.a(udp.o)
 .debug_line    0x00000000000064ad      0x269 /Users/dciliske/nndk/lib/NetBurner.a(autoip.o)
 .debug_line    0x0000000000006716      0xd78 /Users/dciliske/nndk/lib/NetBurner.a(dhcpc.o)
 .debug_line    0x000000000000748e       0x2f /Users/dciliske/nndk/lib/NetBurner.a(defappname.o)
 .debug_line    0x00000000000074bd      0x1ba /Users/dciliske/nndk/lib/NetBurner.a(taskmon.o)
 .debug_line    0x0000000000007677      0x1cf /Users/dciliske/nndk/lib/NetBurner.a(autoupdate.o)
 .debug_line    0x0000000000007846       0x9b /Users/dciliske/nndk/lib/NetBurner.a(nbsiprintf.o)
 .debug_line    0x00000000000078e1      0x187 /Users/dciliske/nndk/lib/NetBurner.a(new_ops.o)
 .debug_line    0x0000000000007a68       0xb7 /Users/dciliske/nndk/lib/MOD5441X.a(localio.o)
 .debug_line    0x0000000000007b1f      0x86e /Users/dciliske/nndk/lib/MOD5441X.a(serial.o)
 .debug_line    0x000000000000838d      0x872 /Users/dciliske/nndk/lib/MOD5441X.a(ethernet.o)
 .debug_line    0x0000000000008bff      0x201 /Users/dciliske/nndk/lib/MOD5441X.a(etherprint.o)
 .debug_line    0x0000000000008e00      0x139 /Users/dciliske/nndk/lib/MOD5441X.a(emulticast.o)
 .debug_line    0x0000000000008f39      0x17f /Users/dciliske/nndk/lib/MOD5441X.a(ether2nd.o)
 .debug_line    0x00000000000090b8      0x25f /Users/dciliske/nndk/lib/MOD5441X.a(etherswitch.o)
 .debug_line    0x0000000000009317       0x36 /Users/dciliske/nndk/lib/MOD5441X.a(weak_autoenet_var.o)
 .debug_line    0x000000000000934d       0xfe /Users/dciliske/nndk/lib/NetBurner.a(extraio.o)
 .debug_line    0x000000000000944b      0x145 /Users/dciliske/nndk/lib/NetBurner.a(netrx.o)
 .debug_line    0x0000000000009590      0x109 /Users/dciliske/nndk/lib/NetBurner.a(multiconfig.o)
 .debug_line    0x0000000000009699      0x459 /Applications/NetBurner/gcc-m68k/bin/../lib/gcc/m68k-elf/4.2.1/m5206e/libgcc.a(_double.o)
 .debug_line    0x0000000000009af2       0x87 /Applications/NetBurner/gcc-m68k/bin/../lib/gcc/m68k-elf/4.2.1/m5206e/libgcc.a(_floatex.o)
 .debug_line    0x0000000000009b79       0x74 /Applications/NetBurner/gcc-m68k/bin/../lib/gcc/m68k-elf/4.2.1/m5206e/libgcc.a(_fixunsdfsi.o)
 .debug_line    0x0000000000009bed      0x152 /Applications/NetBurner/gcc-m68k/bin/../lib/gcc/m68k-elf/4.2.1/m5206e/libgcc.a(_udivdi3.o)
 .debug_line    0x0000000000009d3f      0x14c /Applications/NetBurner/gcc-m68k/bin/../lib/gcc/m68k-elf/4.2.1/m5206e/libgcc.a(_umoddi3.o)
 .debug_line    0x0000000000009e8b      0x167 /Applications/NetBurner/gcc-m68k/bin/../lib/gcc/m68k-elf/4.2.1/m5206e/libgcc.a(fpgnulib.o)
 .debug_line    0x0000000000009ff2       0x72 /Applications/NetBurner/gcc-m68k/bin/../lib/gcc/m68k-elf/4.2.1/m5206e/libgcc.a(_gedf2.o)
 .debug_line    0x000000000000a064       0x59 /Applications/NetBurner/gcc-m68k/bin/../lib/gcc/m68k-elf/4.2.1/m5206e/libgcc.a(_clz.o)
 .debug_line    0x000000000000a0bd       0x8d /Applications/NetBurner/gcc-m68k/bin/../lib/gcc/m68k-elf/4.2.1/../../../../m68k-elf/lib/m5206e/libc.a(lib_a-cxa_atexit.o)
 .debug_line    0x000000000000a14a      0x120 /Applications/NetBurner/gcc-m68k/bin/../lib/gcc/m68k-elf/4.2.1/../../../../m68k-elf/lib/m5206e/libc.a(lib_a-errno.o)
 .debug_line    0x000000000000a26a      0x181 /Applications/NetBurner/gcc-m68k/bin/../lib/gcc/m68k-elf/4.2.1/../../../../m68k-elf/lib/m5206e/libc.a(lib_a-fiprintf.o)
 .debug_line    0x000000000000a3eb      0x111 /Applications/NetBurner/gcc-m68k/bin/../lib/gcc/m68k-elf/4.2.1/../../../../m68k-elf/lib/m5206e/libc.a(lib_a-impure.o)
 .debug_line    0x000000000000a4fc      0x129 /Applications/NetBurner/gcc-m68k/bin/../lib/gcc/m68k-elf/4.2.1/../../../../m68k-elf/lib/m5206e/libc.a(lib_a-malloc.o)
 .debug_line    0x000000000000a625      0x29c /Applications/NetBurner/gcc-m68k/bin/../lib/gcc/m68k-elf/4.2.1/../../../../m68k-elf/lib/m5206e/libc.a(lib_a-mallocr.o)
 .debug_line    0x000000000000a8c1      0x14a /Applications/NetBurner/gcc-m68k/bin/../lib/gcc/m68k-elf/4.2.1/../../../../m68k-elf/lib/m5206e/libc.a(lib_a-puts.o)
 .debug_line    0x000000000000aa0b      0x12a /Applications/NetBurner/gcc-m68k/bin/../lib/gcc/m68k-elf/4.2.1/../../../../m68k-elf/lib/m5206e/libc.a(lib_a-rand.o)
 .debug_line    0x000000000000ab35      0x179 /Applications/NetBurner/gcc-m68k/bin/../lib/gcc/m68k-elf/4.2.1/../../../../m68k-elf/lib/m5206e/libc.a(lib_a-rget.o)
 .debug_line    0x000000000000acae      0x1ce /Applications/NetBurner/gcc-m68k/bin/../lib/gcc/m68k-elf/4.2.1/../../../../m68k-elf/lib/m5206e/libc.a(lib_a-setvbuf.o)
 .debug_line    0x000000000000ae7c       0xd1 /Applications/NetBurner/gcc-m68k/bin/../lib/gcc/m68k-elf/4.2.1/../../../../m68k-elf/lib/m5206e/libc.a(lib_a-strlen.o)
 .debug_line    0x000000000000af4d      0x4bc /Applications/NetBurner/gcc-m68k/bin/../lib/gcc/m68k-elf/4.2.1/../../../../m68k-elf/lib/m5206e/libc.a(lib_a-vfiprintf.o)
 .debug_line    0x000000000000b409      0x1a7 /Applications/NetBurner/gcc-m68k/bin/../lib/gcc/m68k-elf/4.2.1/../../../../m68k-elf/lib/m5206e/libc.a(lib_a-wbuf.o)
 .debug_line    0x000000000000b5b0      0x181 /Applications/NetBurner/gcc-m68k/bin/../lib/gcc/m68k-elf/4.2.1/../../../../m68k-elf/lib/m5206e/libc.a(lib_a-wcrtomb.o)
 .debug_line    0x000000000000b731      0x1b4 /Applications/NetBurner/gcc-m68k/bin/../lib/gcc/m68k-elf/4.2.1/../../../../m68k-elf/lib/m5206e/libc.a(lib_a-wcsrtombs.o)
 .debug_line    0x000000000000b8e5      0x262 /Applications/NetBurner/gcc-m68k/bin/../lib/gcc/m68k-elf/4.2.1/../../../../m68k-elf/lib/m5206e/libc.a(lib_a-wctomb_r.o)
 .debug_line    0x000000000000bb47      0x1ac /Applications/NetBurner/gcc-m68k/bin/../lib/gcc/m68k-elf/4.2.1/../../../../m68k-elf/lib/m5206e/libc.a(lib_a-wsetup.o)
 .debug_line    0x000000000000bcf3      0x16b /Applications/NetBurner/gcc-m68k/bin/../lib/gcc/m68k-elf/4.2.1/../../../../m68k-elf/lib/m5206e/libc.a(lib_a-__atexit.o)
 .debug_line    0x000000000000be5e      0x1d9 /Applications/NetBurner/gcc-m68k/bin/../lib/gcc/m68k-elf/4.2.1/../../../../m68k-elf/lib/m5206e/libc.a(lib_a-fflush.o)
 .debug_line    0x000000000000c037      0x20b /Applications/NetBurner/gcc-m68k/bin/../lib/gcc/m68k-elf/4.2.1/../../../../m68k-elf/lib/m5206e/libc.a(lib_a-findfp.o)
 .debug_line    0x000000000000c242      0x1bc /Applications/NetBurner/gcc-m68k/bin/../lib/gcc/m68k-elf/4.2.1/../../../../m68k-elf/lib/m5206e/libc.a(lib_a-freer.o)
 .debug_line    0x000000000000c3fe      0x25a /Applications/NetBurner/gcc-m68k/bin/../lib/gcc/m68k-elf/4.2.1/../../../../m68k-elf/lib/m5206e/libc.a(lib_a-fvwrite.o)
 .debug_line    0x000000000000c658      0x1a2 /Applications/NetBurner/gcc-m68k/bin/../lib/gcc/m68k-elf/4.2.1/../../../../m68k-elf/lib/m5206e/libc.a(lib_a-fwalk.o)
 .debug_line    0x000000000000c7fa      0x19d /Applications/NetBurner/gcc-m68k/bin/../lib/gcc/m68k-elf/4.2.1/../../../../m68k-elf/lib/m5206e/libc.a(lib_a-locale.o)
 .debug_line    0x000000000000c997      0x1c0 /Applications/NetBurner/gcc-m68k/bin/../lib/gcc/m68k-elf/4.2.1/../../../../m68k-elf/lib/m5206e/libc.a(lib_a-makebuf.o)
 .debug_line    0x000000000000cb57      0x110 /Applications/NetBurner/gcc-m68k/bin/../lib/gcc/m68k-elf/4.2.1/../../../../m68k-elf/lib/m5206e/libc.a(lib_a-memchr.o)
 .debug_line    0x000000000000cc67       0xfd /Applications/NetBurner/gcc-m68k/bin/../lib/gcc/m68k-elf/4.2.1/../../../../m68k-elf/lib/m5206e/libc.a(lib_a-memmove.o)
 .debug_line    0x000000000000cd64      0x22d /Applications/NetBurner/gcc-m68k/bin/../lib/gcc/m68k-elf/4.2.1/../../../../m68k-elf/lib/m5206e/libc.a(lib_a-reallocr.o)
 .debug_line    0x000000000000cf91      0x1f3 /Applications/NetBurner/gcc-m68k/bin/../lib/gcc/m68k-elf/4.2.1/../../../../m68k-elf/lib/m5206e/libc.a(lib_a-refill.o)
 .debug_line    0x000000000000d184      0x1b7 /Applications/NetBurner/gcc-m68k/bin/../lib/gcc/m68k-elf/4.2.1/../../../../m68k-elf/lib/m5206e/libc.a(lib_a-stdio.o)
 .debug_line    0x000000000000d33b       0x98 /Applications/NetBurner/gcc-m68k/bin/../lib/gcc/m68k-elf/4.2.1/../../../../m68k-elf/lib/m5206e/libc.a(lib_a-strcmp.o)
 .debug_line    0x000000000000d3d3      0x129 /Applications/NetBurner/gcc-m68k/bin/../lib/gcc/m68k-elf/4.2.1/../../../../m68k-elf/lib/m5206e/libc.a(lib_a-writer.o)
 .debug_line    0x000000000000d4fc      0x129 /Applications/NetBurner/gcc-m68k/bin/../lib/gcc/m68k-elf/4.2.1/../../../../m68k-elf/lib/m5206e/libc.a(lib_a-closer.o)
 .debug_line    0x000000000000d625      0x195 /Applications/NetBurner/gcc-m68k/bin/../lib/gcc/m68k-elf/4.2.1/../../../../m68k-elf/lib/m5206e/libc.a(lib_a-fclose.o)
 .debug_line    0x000000000000d7ba      0x18c /Applications/NetBurner/gcc-m68k/bin/../lib/gcc/m68k-elf/4.2.1/../../../../m68k-elf/lib/m5206e/libc.a(lib_a-fstatr.o)
 .debug_line    0x000000000000d946      0x129 /Applications/NetBurner/gcc-m68k/bin/../lib/gcc/m68k-elf/4.2.1/../../../../m68k-elf/lib/m5206e/libc.a(lib_a-lseekr.o)
 .debug_line    0x000000000000da6f      0x128 /Applications/NetBurner/gcc-m68k/bin/../lib/gcc/m68k-elf/4.2.1/../../../../m68k-elf/lib/m5206e/libc.a(lib_a-readr.o)
 .debug_line    0x000000000000db97       0x72 /Applications/NetBurner/gcc-m68k/bin/../lib/gcc/m68k-elf/4.2.1/m5206e/libgcc.a(_muldi3.o)

.debug_frame    0x0000000000000000     0x6ce4
 *(.debug_frame)
 .debug_frame   0x0000000000000000       0x9c ./main.o
 .debug_frame   0x000000000000009c      0x188 ./stepper.o
 .debug_frame   0x0000000000000224      0x164 /Users/dciliske/nndk/lib/MOD5441X.a(bsp.o)
 .debug_frame   0x0000000000000388       0x50 /Users/dciliske/nndk/lib/MOD5441X.a(flash.o)
 .debug_frame   0x00000000000003d8       0xb4 /Users/dciliske/nndk/lib/MOD5441X.a(pins.o)
 .debug_frame   0x000000000000048c      0x4e8 /Users/dciliske/nndk/lib/NetBurner.a(ucos.o)
 .debug_frame   0x0000000000000974       0xa8 /Users/dciliske/nndk/lib/NetBurner.a(debugtrap.o)
 .debug_frame   0x0000000000000a1c      0x144 /Users/dciliske/nndk/lib/NetBurner.a(ucosmain.o)
 .debug_frame   0x0000000000000b60      0x1e4 /Users/dciliske/nndk/lib/NetBurner.a(fileio.o)
 .debug_frame   0x0000000000000d44       0x4c /Users/dciliske/nndk/lib/NetBurner.a(main.o)
 .debug_frame   0x0000000000000d90      0xfbc /Users/dciliske/nndk/lib/NetBurner.a(tcp.o)
 .debug_frame   0x0000000000001d4c      0x2f8 /Users/dciliske/nndk/lib/NetBurner.a(iosys.o)
 .debug_frame   0x0000000000002044      0x238 /Users/dciliske/nndk/lib/NetBurner.a(netinterface.o)
 .debug_frame   0x000000000000227c      0x324 /Users/dciliske/nndk/lib/NetBurner.a(smarttrap.o)
 .debug_frame   0x00000000000025a0       0x60 /Users/dciliske/nndk/lib/NetBurner.a(device.o)
 .debug_frame   0x0000000000002600       0x34 /Users/dciliske/nndk/lib/NetBurner.a(release_tag.o)
 .debug_frame   0x0000000000002634       0x48 /Users/dciliske/nndk/lib/NetBurner.a(init.o)
 .debug_frame   0x000000000000267c      0x300 /Users/dciliske/nndk/lib/NetBurner.a(nbiprintf.o)
 .debug_frame   0x000000000000297c       0x9c /Users/dciliske/nndk/lib/NetBurner.a(ucosmcfc.o)
 .debug_frame   0x0000000000002a18      0x178 /Users/dciliske/nndk/lib/NetBurner.a(system.o)
 .debug_frame   0x0000000000002b90      0x2c8 /Users/dciliske/nndk/lib/NetBurner.a(utils.o)
 .debug_frame   0x0000000000002e58      0x4a0 /Users/dciliske/nndk/lib/NetBurner.a(ip.o)
 .debug_frame   0x00000000000032f8      0x44c /Users/dciliske/nndk/lib/NetBurner.a(buffers.o)
 .debug_frame   0x0000000000003744      0x518 /Users/dciliske/nndk/lib/NetBurner.a(arp.o)
 .debug_frame   0x0000000000003c5c      0x534 /Users/dciliske/nndk/lib/NetBurner.a(udp.o)
 .debug_frame   0x0000000000004190      0x2a0 /Users/dciliske/nndk/lib/NetBurner.a(autoip.o)
 .debug_frame   0x0000000000004430      0x6f4 /Users/dciliske/nndk/lib/NetBurner.a(dhcpc.o)
 .debug_frame   0x0000000000004b24       0x94 /Users/dciliske/nndk/lib/NetBurner.a(taskmon.o)
 .debug_frame   0x0000000000004bb8      0x128 /Users/dciliske/nndk/lib/NetBurner.a(autoupdate.o)
 .debug_frame   0x0000000000004ce0       0x70 /Users/dciliske/nndk/lib/NetBurner.a(nbsiprintf.o)
 .debug_frame   0x0000000000004d50       0x30 /Users/dciliske/nndk/lib/NetBurner.a(new_ops.o)
 .debug_frame   0x0000000000004d80       0x98 /Users/dciliske/nndk/lib/MOD5441X.a(localio.o)
 .debug_frame   0x0000000000004e18      0x5d8 /Users/dciliske/nndk/lib/MOD5441X.a(serial.o)
 .debug_frame   0x00000000000053f0      0x53c /Users/dciliske/nndk/lib/MOD5441X.a(ethernet.o)
 .debug_frame   0x000000000000592c      0x1b0 /Users/dciliske/nndk/lib/MOD5441X.a(etherprint.o)
 .debug_frame   0x0000000000005adc       0x78 /Users/dciliske/nndk/lib/MOD5441X.a(emulticast.o)
 .debug_frame   0x0000000000005b54       0xac /Users/dciliske/nndk/lib/MOD5441X.a(ether2nd.o)
 .debug_frame   0x0000000000005c00      0x180 /Users/dciliske/nndk/lib/MOD5441X.a(etherswitch.o)
 .debug_frame   0x0000000000005d80      0x140 /Users/dciliske/nndk/lib/NetBurner.a(extraio.o)
 .debug_frame   0x0000000000005ec0       0x44 /Users/dciliske/nndk/lib/NetBurner.a(netrx.o)
 .debug_frame   0x0000000000005f04       0x50 /Users/dciliske/nndk/lib/NetBurner.a(multiconfig.o)
 .debug_frame   0x0000000000005f54       0x38 /Applications/NetBurner/gcc-m68k/bin/../lib/gcc/m68k-elf/4.2.1/m5206e/libgcc.a(_fixunsdfsi.o)
 .debug_frame   0x0000000000005f8c       0x40 /Applications/NetBurner/gcc-m68k/bin/../lib/gcc/m68k-elf/4.2.1/m5206e/libgcc.a(_udivdi3.o)
 .debug_frame   0x0000000000005fcc       0x40 /Applications/NetBurner/gcc-m68k/bin/../lib/gcc/m68k-elf/4.2.1/m5206e/libgcc.a(_umoddi3.o)
 .debug_frame   0x000000000000600c      0x144 /Applications/NetBurner/gcc-m68k/bin/../lib/gcc/m68k-elf/4.2.1/m5206e/libgcc.a(fpgnulib.o)
 .debug_frame   0x0000000000006150       0x30 /Applications/NetBurner/gcc-m68k/bin/../lib/gcc/m68k-elf/4.2.1/../../../../m68k-elf/lib/m5206e/libc.a(lib_a-cxa_atexit.o)
 .debug_frame   0x0000000000006180       0x2c /Applications/NetBurner/gcc-m68k/bin/../lib/gcc/m68k-elf/4.2.1/../../../../m68k-elf/lib/m5206e/libc.a(lib_a-errno.o)
 .debug_frame   0x00000000000061ac       0x30 /Applications/NetBurner/gcc-m68k/bin/../lib/gcc/m68k-elf/4.2.1/../../../../m68k-elf/lib/m5206e/libc.a(lib_a-fiprintf.o)
 .debug_frame   0x00000000000061dc       0x4c /Applications/NetBurner/gcc-m68k/bin/../lib/gcc/m68k-elf/4.2.1/../../../../m68k-elf/lib/m5206e/libc.a(lib_a-malloc.o)
 .debug_frame   0x0000000000006228       0x58 /Applications/NetBurner/gcc-m68k/bin/../lib/gcc/m68k-elf/4.2.1/../../../../m68k-elf/lib/m5206e/libc.a(lib_a-mallocr.o)
 .debug_frame   0x0000000000006280       0x54 /Applications/NetBurner/gcc-m68k/bin/../lib/gcc/m68k-elf/4.2.1/../../../../m68k-elf/lib/m5206e/libc.a(lib_a-puts.o)
 .debug_frame   0x00000000000062d4       0x4c /Applications/NetBurner/gcc-m68k/bin/../lib/gcc/m68k-elf/4.2.1/../../../../m68k-elf/lib/m5206e/libc.a(lib_a-rand.o)
 .debug_frame   0x0000000000006320       0x4c /Applications/NetBurner/gcc-m68k/bin/../lib/gcc/m68k-elf/4.2.1/../../../../m68k-elf/lib/m5206e/libc.a(lib_a-rget.o)
 .debug_frame   0x000000000000636c       0x3c /Applications/NetBurner/gcc-m68k/bin/../lib/gcc/m68k-elf/4.2.1/../../../../m68k-elf/lib/m5206e/libc.a(lib_a-setvbuf.o)
 .debug_frame   0x00000000000063a8       0x2c /Applications/NetBurner/gcc-m68k/bin/../lib/gcc/m68k-elf/4.2.1/../../../../m68k-elf/lib/m5206e/libc.a(lib_a-strlen.o)
 .debug_frame   0x00000000000063d4       0xc4 /Applications/NetBurner/gcc-m68k/bin/../lib/gcc/m68k-elf/4.2.1/../../../../m68k-elf/lib/m5206e/libc.a(lib_a-vfiprintf.o)
 .debug_frame   0x0000000000006498       0x54 /Applications/NetBurner/gcc-m68k/bin/../lib/gcc/m68k-elf/4.2.1/../../../../m68k-elf/lib/m5206e/libc.a(lib_a-wbuf.o)
 .debug_frame   0x00000000000064ec       0x50 /Applications/NetBurner/gcc-m68k/bin/../lib/gcc/m68k-elf/4.2.1/../../../../m68k-elf/lib/m5206e/libc.a(lib_a-wcrtomb.o)
 .debug_frame   0x000000000000653c       0x60 /Applications/NetBurner/gcc-m68k/bin/../lib/gcc/m68k-elf/4.2.1/../../../../m68k-elf/lib/m5206e/libc.a(lib_a-wcsrtombs.o)
 .debug_frame   0x000000000000659c       0x3c /Applications/NetBurner/gcc-m68k/bin/../lib/gcc/m68k-elf/4.2.1/../../../../m68k-elf/lib/m5206e/libc.a(lib_a-wctomb_r.o)
 .debug_frame   0x00000000000065d8       0x38 /Applications/NetBurner/gcc-m68k/bin/../lib/gcc/m68k-elf/4.2.1/../../../../m68k-elf/lib/m5206e/libc.a(lib_a-wsetup.o)
 .debug_frame   0x0000000000006610       0x38 /Applications/NetBurner/gcc-m68k/bin/../lib/gcc/m68k-elf/4.2.1/../../../../m68k-elf/lib/m5206e/libc.a(lib_a-__atexit.o)
 .debug_frame   0x0000000000006648       0x44 /Applications/NetBurner/gcc-m68k/bin/../lib/gcc/m68k-elf/4.2.1/../../../../m68k-elf/lib/m5206e/libc.a(lib_a-fflush.o)
 .debug_frame   0x000000000000668c       0xcc /Applications/NetBurner/gcc-m68k/bin/../lib/gcc/m68k-elf/4.2.1/../../../../m68k-elf/lib/m5206e/libc.a(lib_a-findfp.o)
 .debug_frame   0x0000000000006758       0x78 /Applications/NetBurner/gcc-m68k/bin/../lib/gcc/m68k-elf/4.2.1/../../../../m68k-elf/lib/m5206e/libc.a(lib_a-freer.o)
 .debug_frame   0x00000000000067d0       0x68 /Applications/NetBurner/gcc-m68k/bin/../lib/gcc/m68k-elf/4.2.1/../../../../m68k-elf/lib/m5206e/libc.a(lib_a-fvwrite.o)
 .debug_frame   0x0000000000006838       0x64 /Applications/NetBurner/gcc-m68k/bin/../lib/gcc/m68k-elf/4.2.1/../../../../m68k-elf/lib/m5206e/libc.a(lib_a-fwalk.o)
 .debug_frame   0x000000000000689c       0x9c /Applications/NetBurner/gcc-m68k/bin/../lib/gcc/m68k-elf/4.2.1/../../../../m68k-elf/lib/m5206e/libc.a(lib_a-locale.o)
 .debug_frame   0x0000000000006938       0x40 /Applications/NetBurner/gcc-m68k/bin/../lib/gcc/m68k-elf/4.2.1/../../../../m68k-elf/lib/m5206e/libc.a(lib_a-makebuf.o)
 .debug_frame   0x0000000000006978       0x34 /Applications/NetBurner/gcc-m68k/bin/../lib/gcc/m68k-elf/4.2.1/../../../../m68k-elf/lib/m5206e/libc.a(lib_a-memchr.o)
 .debug_frame   0x00000000000069ac       0x38 /Applications/NetBurner/gcc-m68k/bin/../lib/gcc/m68k-elf/4.2.1/../../../../m68k-elf/lib/m5206e/libc.a(lib_a-memmove.o)
 .debug_frame   0x00000000000069e4       0x64 /Applications/NetBurner/gcc-m68k/bin/../lib/gcc/m68k-elf/4.2.1/../../../../m68k-elf/lib/m5206e/libc.a(lib_a-reallocr.o)
 .debug_frame   0x0000000000006a48       0x60 /Applications/NetBurner/gcc-m68k/bin/../lib/gcc/m68k-elf/4.2.1/../../../../m68k-elf/lib/m5206e/libc.a(lib_a-refill.o)
 .debug_frame   0x0000000000006aa8       0x84 /Applications/NetBurner/gcc-m68k/bin/../lib/gcc/m68k-elf/4.2.1/../../../../m68k-elf/lib/m5206e/libc.a(lib_a-stdio.o)
 .debug_frame   0x0000000000006b2c       0x2c /Applications/NetBurner/gcc-m68k/bin/../lib/gcc/m68k-elf/4.2.1/../../../../m68k-elf/lib/m5206e/libc.a(lib_a-strcmp.o)
 .debug_frame   0x0000000000006b58       0x30 /Applications/NetBurner/gcc-m68k/bin/../lib/gcc/m68k-elf/4.2.1/../../../../m68k-elf/lib/m5206e/libc.a(lib_a-writer.o)
 .debug_frame   0x0000000000006b88       0x30 /Applications/NetBurner/gcc-m68k/bin/../lib/gcc/m68k-elf/4.2.1/../../../../m68k-elf/lib/m5206e/libc.a(lib_a-closer.o)
 .debug_frame   0x0000000000006bb8       0x5c /Applications/NetBurner/gcc-m68k/bin/../lib/gcc/m68k-elf/4.2.1/../../../../m68k-elf/lib/m5206e/libc.a(lib_a-fclose.o)
 .debug_frame   0x0000000000006c14       0x30 /Applications/NetBurner/gcc-m68k/bin/../lib/gcc/m68k-elf/4.2.1/../../../../m68k-elf/lib/m5206e/libc.a(lib_a-fstatr.o)
 .debug_frame   0x0000000000006c44       0x30 /Applications/NetBurner/gcc-m68k/bin/../lib/gcc/m68k-elf/4.2.1/../../../../m68k-elf/lib/m5206e/libc.a(lib_a-lseekr.o)
 .debug_frame   0x0000000000006c74       0x30 /Applications/NetBurner/gcc-m68k/bin/../lib/gcc/m68k-elf/4.2.1/../../../../m68k-elf/lib/m5206e/libc.a(lib_a-readr.o)
 .debug_frame   0x0000000000006ca4       0x40 /Applications/NetBurner/gcc-m68k/bin/../lib/gcc/m68k-elf/4.2.1/m5206e/libgcc.a(_muldi3.o)

.debug_str      0x0000000000000000     0xad21
 *(.debug_str)
 .debug_str     0x0000000000000000      0x2d9 ./main.o
                                        0x34d (size before relaxing)
 .debug_str     0x00000000000002d9      0xde2 ./stepper.o
                                       0x112f (size before relaxing)
 .debug_str     0x00000000000010bb      0xae2 /Users/dciliske/nndk/lib/MOD5441X.a(bsp.o)
                                       0x17c1 (size before relaxing)
 .debug_str     0x0000000000001b9d      0x15f /Users/dciliske/nndk/lib/MOD5441X.a(flash.o)
                                        0x771 (size before relaxing)
 .debug_str     0x0000000000001cfc       0x3e /Users/dciliske/nndk/lib/MOD5441X.a(pins.o)
                                        0x759 (size before relaxing)
 .debug_str     0x0000000000001d3a      0x4da /Users/dciliske/nndk/lib/NetBurner.a(ucos.o)
                                        0x611 (size before relaxing)
 .debug_str     0x0000000000002214       0x9a /Users/dciliske/nndk/lib/NetBurner.a(debugtrap.o)
                                        0x12e (size before relaxing)
 .debug_str     0x00000000000022ae       0xd2 /Users/dciliske/nndk/lib/NetBurner.a(ucosmain.o)
                                        0x665 (size before relaxing)
 .debug_str     0x0000000000002380      0x19b /Users/dciliske/nndk/lib/NetBurner.a(fileio.o)
                                        0x62d (size before relaxing)
 .debug_str     0x000000000000251b       0x3c /Users/dciliske/nndk/lib/NetBurner.a(main.o)
                                         0xfa (size before relaxing)
 .debug_str     0x0000000000002557     0x24b7 /Users/dciliske/nndk/lib/NetBurner.a(tcp.o)
                                       0x2874 (size before relaxing)
 .debug_str     0x0000000000004a0e      0x271 /Users/dciliske/nndk/lib/NetBurner.a(iosys.o)
                                        0x3f5 (size before relaxing)
 .debug_str     0x0000000000004c7f      0x3e5 /Users/dciliske/nndk/lib/NetBurner.a(netinterface.o)
                                       0x1256 (size before relaxing)
 .debug_str     0x0000000000005064      0x198 /Users/dciliske/nndk/lib/NetBurner.a(smarttrap.o)
                                        0x33b (size before relaxing)
 .debug_str     0x00000000000051fc       0x86 /Users/dciliske/nndk/lib/NetBurner.a(device.o)
                                        0x13a (size before relaxing)
 .debug_str     0x0000000000005282       0x33 /Users/dciliske/nndk/lib/NetBurner.a(release_tag.o)
                                         0x9a (size before relaxing)
 .debug_str     0x00000000000052b5       0x14 /Users/dciliske/nndk/lib/NetBurner.a(release_tagdata.o)
                                         0x72 (size before relaxing)
 .debug_str     0x00000000000052c9       0x4b /Users/dciliske/nndk/lib/NetBurner.a(init.o)
                                        0x212 (size before relaxing)
 .debug_str     0x0000000000005314      0x312 /Users/dciliske/nndk/lib/NetBurner.a(nbiprintf.o)
                                        0x430 (size before relaxing)
 .debug_str     0x0000000000005626       0x8d /Users/dciliske/nndk/lib/NetBurner.a(ucosmcfc.o)
                                        0x1e8 (size before relaxing)
 .debug_str     0x00000000000056b3       0xde /Users/dciliske/nndk/lib/NetBurner.a(system.o)
                                        0x683 (size before relaxing)
 .debug_str     0x0000000000005791      0x33d /Users/dciliske/nndk/lib/NetBurner.a(utils.o)
                                        0x821 (size before relaxing)
 .debug_str     0x0000000000005ace      0xcd0 /Users/dciliske/nndk/lib/NetBurner.a(ip.o)
                                       0x1dd0 (size before relaxing)
 .debug_str     0x000000000000679e      0x1ae /Users/dciliske/nndk/lib/NetBurner.a(buffers.o)
                                        0x8d7 (size before relaxing)
 .debug_str     0x000000000000694c      0x4e8 /Users/dciliske/nndk/lib/NetBurner.a(arp.o)
                                       0x16e9 (size before relaxing)
 .debug_str     0x0000000000006e34      0x70a /Users/dciliske/nndk/lib/NetBurner.a(udp.o)
                                       0x16fe (size before relaxing)
 .debug_str     0x000000000000753e       0x61 /Users/dciliske/nndk/lib/NetBurner.a(autoip.o)
                                        0xdfc (size before relaxing)
 .debug_str     0x000000000000759f      0x902 /Users/dciliske/nndk/lib/NetBurner.a(dhcpc.o)
                                       0x1cef (size before relaxing)
 .debug_str     0x0000000000007ea1        0xf /Users/dciliske/nndk/lib/NetBurner.a(defappname.o)
                                         0x46 (size before relaxing)
 .debug_str     0x0000000000007eb0       0xb4 /Users/dciliske/nndk/lib/NetBurner.a(taskmon.o)
                                        0x82c (size before relaxing)
 .debug_str     0x0000000000007f64      0x1dc /Users/dciliske/nndk/lib/NetBurner.a(autoupdate.o)
                                        0x8dc (size before relaxing)
 .debug_str     0x0000000000008140       0x54 /Users/dciliske/nndk/lib/NetBurner.a(nbsiprintf.o)
                                        0x13a (size before relaxing)
 .debug_str     0x0000000000008194       0x8f /Users/dciliske/nndk/lib/NetBurner.a(new_ops.o)
                                        0x15c (size before relaxing)
 .debug_str     0x0000000000008223       0x54 /Users/dciliske/nndk/lib/MOD5441X.a(localio.o)
                                       0x1400 (size before relaxing)
 .debug_str     0x0000000000008277      0x5dd /Users/dciliske/nndk/lib/MOD5441X.a(serial.o)
                                       0x2101 (size before relaxing)
 .debug_str     0x0000000000008854      0x9fa /Users/dciliske/nndk/lib/MOD5441X.a(ethernet.o)
                                       0x2a48 (size before relaxing)
 .debug_str     0x000000000000924e       0x87 /Users/dciliske/nndk/lib/MOD5441X.a(etherprint.o)
                                       0x1a32 (size before relaxing)
 .debug_str     0x00000000000092d5       0x5b /Users/dciliske/nndk/lib/MOD5441X.a(emulticast.o)
                                       0x159d (size before relaxing)
 .debug_str     0x0000000000009330       0xe7 /Users/dciliske/nndk/lib/MOD5441X.a(ether2nd.o)
                                       0x1610 (size before relaxing)
 .debug_str     0x0000000000009417      0x203 /Users/dciliske/nndk/lib/MOD5441X.a(etherswitch.o)
                                       0x1891 (size before relaxing)
 .debug_str     0x000000000000961a       0x16 /Users/dciliske/nndk/lib/MOD5441X.a(weak_autoenet_var.o)
                                         0x61 (size before relaxing)
 .debug_str     0x0000000000009630      0x127 /Users/dciliske/nndk/lib/NetBurner.a(extraio.o)
                                        0x240 (size before relaxing)
 .debug_str     0x0000000000009757       0x51 /Users/dciliske/nndk/lib/NetBurner.a(netrx.o)
                                        0x29b (size before relaxing)
 .debug_str     0x00000000000097a8       0x4d /Users/dciliske/nndk/lib/NetBurner.a(multiconfig.o)
                                        0xe55 (size before relaxing)
 .debug_str     0x00000000000097f5       0x85 /Applications/NetBurner/gcc-m68k/bin/../lib/gcc/m68k-elf/4.2.1/m5206e/libgcc.a(_fixunsdfsi.o)
                                        0x127 (size before relaxing)
 .debug_str     0x000000000000987a       0x65 /Applications/NetBurner/gcc-m68k/bin/../lib/gcc/m68k-elf/4.2.1/m5206e/libgcc.a(_udivdi3.o)
                                        0x18b (size before relaxing)
 .debug_str     0x00000000000098df        0xa /Applications/NetBurner/gcc-m68k/bin/../lib/gcc/m68k-elf/4.2.1/m5206e/libgcc.a(_umoddi3.o)
                                        0x18b (size before relaxing)
 .debug_str     0x00000000000098e9       0xce /Applications/NetBurner/gcc-m68k/bin/../lib/gcc/m68k-elf/4.2.1/m5206e/libgcc.a(fpgnulib.o)
                                        0x127 (size before relaxing)
 .debug_str     0x0000000000000000      0x11d /Applications/NetBurner/gcc-m68k/bin/../lib/gcc/m68k-elf/4.2.1/m5206e/libgcc.a(_clz.o)
 .debug_str     0x00000000000099b7       0xcf /Applications/NetBurner/gcc-m68k/bin/../lib/gcc/m68k-elf/4.2.1/../../../../m68k-elf/lib/m5206e/libc.a(lib_a-cxa_atexit.o)
                                        0x158 (size before relaxing)
 .debug_str     0x0000000000009a86       0x93 /Applications/NetBurner/gcc-m68k/bin/../lib/gcc/m68k-elf/4.2.1/../../../../m68k-elf/lib/m5206e/libc.a(lib_a-errno.o)
                                        0x49c (size before relaxing)
 .debug_str     0x0000000000009b19       0xaf /Applications/NetBurner/gcc-m68k/bin/../lib/gcc/m68k-elf/4.2.1/../../../../m68k-elf/lib/m5206e/libc.a(lib_a-fiprintf.o)
                                        0x4ce (size before relaxing)
 .debug_str     0x0000000000009bc8       0xab /Applications/NetBurner/gcc-m68k/bin/../lib/gcc/m68k-elf/4.2.1/../../../../m68k-elf/lib/m5206e/libc.a(lib_a-impure.o)
                                        0x4b4 (size before relaxing)
 .debug_str     0x0000000000009c73       0x51 /Applications/NetBurner/gcc-m68k/bin/../lib/gcc/m68k-elf/4.2.1/../../../../m68k-elf/lib/m5206e/libc.a(lib_a-malloc.o)
                                        0x4b6 (size before relaxing)
 .debug_str     0x0000000000009cc4      0x213 /Applications/NetBurner/gcc-m68k/bin/../lib/gcc/m68k-elf/4.2.1/../../../../m68k-elf/lib/m5206e/libc.a(lib_a-mallocr.o)
                                        0x697 (size before relaxing)
 .debug_str     0x0000000000009ed7       0x92 /Applications/NetBurner/gcc-m68k/bin/../lib/gcc/m68k-elf/4.2.1/../../../../m68k-elf/lib/m5206e/libc.a(lib_a-puts.o)
                                        0x4ef (size before relaxing)
 .debug_str     0x0000000000009f69       0x4a /Applications/NetBurner/gcc-m68k/bin/../lib/gcc/m68k-elf/4.2.1/../../../../m68k-elf/lib/m5206e/libc.a(lib_a-rand.o)
                                        0x4a5 (size before relaxing)
 .debug_str     0x0000000000009fb3       0x5b /Applications/NetBurner/gcc-m68k/bin/../lib/gcc/m68k-elf/4.2.1/../../../../m68k-elf/lib/m5206e/libc.a(lib_a-rget.o)
                                        0x4b6 (size before relaxing)
 .debug_str     0x000000000000a00e       0x54 /Applications/NetBurner/gcc-m68k/bin/../lib/gcc/m68k-elf/4.2.1/../../../../m68k-elf/lib/m5206e/libc.a(lib_a-setvbuf.o)
                                        0x4c0 (size before relaxing)
 .debug_str     0x000000000000a062       0xa4 /Applications/NetBurner/gcc-m68k/bin/../lib/gcc/m68k-elf/4.2.1/../../../../m68k-elf/lib/m5206e/libc.a(lib_a-strlen.o)
                                        0x134 (size before relaxing)
 .debug_str     0x000000000000a106       0xf5 /Applications/NetBurner/gcc-m68k/bin/../lib/gcc/m68k-elf/4.2.1/../../../../m68k-elf/lib/m5206e/libc.a(lib_a-vfiprintf.o)
                                        0x625 (size before relaxing)
 .debug_str     0x000000000000a1fb       0x5b /Applications/NetBurner/gcc-m68k/bin/../lib/gcc/m68k-elf/4.2.1/../../../../m68k-elf/lib/m5206e/libc.a(lib_a-wbuf.o)
                                        0x4b6 (size before relaxing)
 .debug_str     0x000000000000a256       0x67 /Applications/NetBurner/gcc-m68k/bin/../lib/gcc/m68k-elf/4.2.1/../../../../m68k-elf/lib/m5206e/libc.a(lib_a-wcrtomb.o)
                                        0x4d7 (size before relaxing)
 .debug_str     0x000000000000a2bd       0x6b /Applications/NetBurner/gcc-m68k/bin/../lib/gcc/m68k-elf/4.2.1/../../../../m68k-elf/lib/m5206e/libc.a(lib_a-wcsrtombs.o)
                                        0x4ec (size before relaxing)
 .debug_str     0x000000000000a328       0x75 /Applications/NetBurner/gcc-m68k/bin/../lib/gcc/m68k-elf/4.2.1/../../../../m68k-elf/lib/m5206e/libc.a(lib_a-wctomb_r.o)
                                        0x4cc (size before relaxing)
 .debug_str     0x000000000000a39d       0x55 /Applications/NetBurner/gcc-m68k/bin/../lib/gcc/m68k-elf/4.2.1/../../../../m68k-elf/lib/m5206e/libc.a(lib_a-wsetup.o)
                                        0x4b0 (size before relaxing)
 .debug_str     0x000000000000a3f2       0x62 /Applications/NetBurner/gcc-m68k/bin/../lib/gcc/m68k-elf/4.2.1/../../../../m68k-elf/lib/m5206e/libc.a(lib_a-__atexit.o)
                                        0x4ee (size before relaxing)
 .debug_str     0x000000000000a454       0x60 /Applications/NetBurner/gcc-m68k/bin/../lib/gcc/m68k-elf/4.2.1/../../../../m68k-elf/lib/m5206e/libc.a(lib_a-fflush.o)
                                        0x4ce (size before relaxing)
 .debug_str     0x000000000000a4b4       0x71 /Applications/NetBurner/gcc-m68k/bin/../lib/gcc/m68k-elf/4.2.1/../../../../m68k-elf/lib/m5206e/libc.a(lib_a-findfp.o)
                                        0x4f2 (size before relaxing)
 .debug_str     0x000000000000a525       0x36 /Applications/NetBurner/gcc-m68k/bin/../lib/gcc/m68k-elf/4.2.1/../../../../m68k-elf/lib/m5206e/libc.a(lib_a-freer.o)
                                        0x5e9 (size before relaxing)
 .debug_str     0x000000000000a55b       0x77 /Applications/NetBurner/gcc-m68k/bin/../lib/gcc/m68k-elf/4.2.1/../../../../m68k-elf/lib/m5206e/libc.a(lib_a-fvwrite.o)
                                        0x515 (size before relaxing)
 .debug_str     0x000000000000a5d2       0x6f /Applications/NetBurner/gcc-m68k/bin/../lib/gcc/m68k-elf/4.2.1/../../../../m68k-elf/lib/m5206e/libc.a(lib_a-fwalk.o)
                                        0x4db (size before relaxing)
 .debug_str     0x000000000000a641      0x1e1 /Applications/NetBurner/gcc-m68k/bin/../lib/gcc/m68k-elf/4.2.1/../../../../m68k-elf/lib/m5206e/libc.a(lib_a-locale.o)
                                        0x643 (size before relaxing)
 .debug_str     0x000000000000a822       0x62 /Applications/NetBurner/gcc-m68k/bin/../lib/gcc/m68k-elf/4.2.1/../../../../m68k-elf/lib/m5206e/libc.a(lib_a-makebuf.o)
                                        0x597 (size before relaxing)
 .debug_str     0x000000000000a884       0xa3 /Applications/NetBurner/gcc-m68k/bin/../lib/gcc/m68k-elf/4.2.1/../../../../m68k-elf/lib/m5206e/libc.a(lib_a-memchr.o)
                                        0x146 (size before relaxing)
 .debug_str     0x000000000000a927       0x76 /Applications/NetBurner/gcc-m68k/bin/../lib/gcc/m68k-elf/4.2.1/../../../../m68k-elf/lib/m5206e/libc.a(lib_a-memmove.o)
                                        0x158 (size before relaxing)
 .debug_str     0x000000000000a99d       0x4a /Applications/NetBurner/gcc-m68k/bin/../lib/gcc/m68k-elf/4.2.1/../../../../m68k-elf/lib/m5206e/libc.a(lib_a-reallocr.o)
                                        0x569 (size before relaxing)
 .debug_str     0x000000000000a9e7       0x5e /Applications/NetBurner/gcc-m68k/bin/../lib/gcc/m68k-elf/4.2.1/../../../../m68k-elf/lib/m5206e/libc.a(lib_a-refill.o)
                                        0x4cc (size before relaxing)
 .debug_str     0x000000000000aa45       0x73 /Applications/NetBurner/gcc-m68k/bin/../lib/gcc/m68k-elf/4.2.1/../../../../m68k-elf/lib/m5206e/libc.a(lib_a-stdio.o)
                                        0x4e3 (size before relaxing)
 .debug_str     0x000000000000aab8       0x53 /Applications/NetBurner/gcc-m68k/bin/../lib/gcc/m68k-elf/4.2.1/../../../../m68k-elf/lib/m5206e/libc.a(lib_a-strcmp.o)
                                        0x11e (size before relaxing)
 .debug_str     0x000000000000ab0b       0x5d /Applications/NetBurner/gcc-m68k/bin/../lib/gcc/m68k-elf/4.2.1/../../../../m68k-elf/lib/m5206e/libc.a(lib_a-writer.o)
                                        0x4b4 (size before relaxing)
 .debug_str     0x000000000000ab68       0x54 /Applications/NetBurner/gcc-m68k/bin/../lib/gcc/m68k-elf/4.2.1/../../../../m68k-elf/lib/m5206e/libc.a(lib_a-closer.o)
                                        0x4a4 (size before relaxing)
 .debug_str     0x000000000000abbc       0x5c /Applications/NetBurner/gcc-m68k/bin/../lib/gcc/m68k-elf/4.2.1/../../../../m68k-elf/lib/m5206e/libc.a(lib_a-fclose.o)
                                        0x4bc (size before relaxing)
 .debug_str     0x000000000000ac18       0x5a /Applications/NetBurner/gcc-m68k/bin/../lib/gcc/m68k-elf/4.2.1/../../../../m68k-elf/lib/m5206e/libc.a(lib_a-fstatr.o)
                                        0x578 (size before relaxing)
 .debug_str     0x000000000000ac72       0x54 /Applications/NetBurner/gcc-m68k/bin/../lib/gcc/m68k-elf/4.2.1/../../../../m68k-elf/lib/m5206e/libc.a(lib_a-lseekr.o)
                                        0x4b2 (size before relaxing)
 .debug_str     0x000000000000acc6       0x52 /Applications/NetBurner/gcc-m68k/bin/../lib/gcc/m68k-elf/4.2.1/../../../../m68k-elf/lib/m5206e/libc.a(lib_a-readr.o)
                                        0x4b2 (size before relaxing)
 .debug_str     0x000000000000ad18        0x9 /Applications/NetBurner/gcc-m68k/bin/../lib/gcc/m68k-elf/4.2.1/m5206e/libgcc.a(_muldi3.o)
                                        0x138 (size before relaxing)

.debug_loc      0x0000000000000000    0x1eaf4
 *(.debug_loc)
 .debug_loc     0x0000000000000000       0xa0 ./main.o
 .debug_loc     0x00000000000000a0      0x4ca ./stepper.o
 .debug_loc     0x000000000000056a      0x353 /Users/dciliske/nndk/lib/MOD5441X.a(bsp.o)
 .debug_loc     0x00000000000008bd      0x236 /Users/dciliske/nndk/lib/MOD5441X.a(flash.o)
 .debug_loc     0x0000000000000af3      0x360 /Users/dciliske/nndk/lib/MOD5441X.a(pins.o)
 .debug_loc     0x0000000000000e53     0x1460 /Users/dciliske/nndk/lib/NetBurner.a(ucos.o)
 .debug_loc     0x00000000000022b3       0xea /Users/dciliske/nndk/lib/NetBurner.a(debugtrap.o)
 .debug_loc     0x000000000000239d      0x230 /Users/dciliske/nndk/lib/NetBurner.a(ucosmain.o)
 .debug_loc     0x00000000000025cd      0x94e /Users/dciliske/nndk/lib/NetBurner.a(fileio.o)
 .debug_loc     0x0000000000002f1b       0x53 /Users/dciliske/nndk/lib/NetBurner.a(main.o)
 .debug_loc     0x0000000000002f6e     0x5463 /Users/dciliske/nndk/lib/NetBurner.a(tcp.o)
 .debug_loc     0x00000000000083d1      0xa3b /Users/dciliske/nndk/lib/NetBurner.a(iosys.o)
 .debug_loc     0x0000000000008e0c      0x741 /Users/dciliske/nndk/lib/NetBurner.a(netinterface.o)
 .debug_loc     0x000000000000954d      0x65f /Users/dciliske/nndk/lib/NetBurner.a(smarttrap.o)
 .debug_loc     0x0000000000009bac       0x60 /Users/dciliske/nndk/lib/NetBurner.a(device.o)
 .debug_loc     0x0000000000009c0c       0x54 /Users/dciliske/nndk/lib/NetBurner.a(release_tag.o)
 .debug_loc     0x0000000000009c60       0x33 /Users/dciliske/nndk/lib/NetBurner.a(init.o)
 .debug_loc     0x0000000000009c93     0x1573 /Users/dciliske/nndk/lib/NetBurner.a(nbiprintf.o)
 .debug_loc     0x000000000000b206      0x461 /Users/dciliske/nndk/lib/NetBurner.a(ucosmcfc.o)
 .debug_loc     0x000000000000b667      0x438 /Users/dciliske/nndk/lib/NetBurner.a(system.o)
 .debug_loc     0x000000000000ba9f      0xbf9 /Users/dciliske/nndk/lib/NetBurner.a(utils.o)
 .debug_loc     0x000000000000c698     0x1902 /Users/dciliske/nndk/lib/NetBurner.a(ip.o)
 .debug_loc     0x000000000000df9a     0x1115 /Users/dciliske/nndk/lib/NetBurner.a(buffers.o)
 .debug_loc     0x000000000000f0af     0x186b /Users/dciliske/nndk/lib/NetBurner.a(arp.o)
 .debug_loc     0x000000000001091a     0x17a7 /Users/dciliske/nndk/lib/NetBurner.a(udp.o)
 .debug_loc     0x00000000000120c1      0x8fa /Users/dciliske/nndk/lib/NetBurner.a(autoip.o)
 .debug_loc     0x00000000000129bb     0x1a2c /Users/dciliske/nndk/lib/NetBurner.a(dhcpc.o)
 .debug_loc     0x00000000000143e7      0x18e /Users/dciliske/nndk/lib/NetBurner.a(taskmon.o)
 .debug_loc     0x0000000000014575      0x3c3 /Users/dciliske/nndk/lib/NetBurner.a(autoupdate.o)
 .debug_loc     0x0000000000014938      0x101 /Users/dciliske/nndk/lib/NetBurner.a(nbsiprintf.o)
 .debug_loc     0x0000000000014a39       0x62 /Users/dciliske/nndk/lib/NetBurner.a(new_ops.o)
 .debug_loc     0x0000000000014a9b       0xd3 /Users/dciliske/nndk/lib/MOD5441X.a(localio.o)
 .debug_loc     0x0000000000014b6e     0x13b3 /Users/dciliske/nndk/lib/MOD5441X.a(serial.o)
 .debug_loc     0x0000000000015f21     0x1349 /Users/dciliske/nndk/lib/MOD5441X.a(ethernet.o)
 .debug_loc     0x000000000001726a      0x2f1 /Users/dciliske/nndk/lib/MOD5441X.a(etherprint.o)
 .debug_loc     0x000000000001755b      0x1e5 /Users/dciliske/nndk/lib/MOD5441X.a(emulticast.o)
 .debug_loc     0x0000000000017740       0xe7 /Users/dciliske/nndk/lib/MOD5441X.a(ether2nd.o)
 .debug_loc     0x0000000000017827      0x3c4 /Users/dciliske/nndk/lib/MOD5441X.a(etherswitch.o)
 .debug_loc     0x0000000000017beb      0x361 /Users/dciliske/nndk/lib/NetBurner.a(extraio.o)
 .debug_loc     0x0000000000017f4c      0x26d /Users/dciliske/nndk/lib/NetBurner.a(netrx.o)
 .debug_loc     0x00000000000181b9       0xff /Users/dciliske/nndk/lib/NetBurner.a(multiconfig.o)
 .debug_loc     0x00000000000182b8       0x40 /Applications/NetBurner/gcc-m68k/bin/../lib/gcc/m68k-elf/4.2.1/m5206e/libgcc.a(_fixunsdfsi.o)
 .debug_loc     0x00000000000182f8      0x86e /Applications/NetBurner/gcc-m68k/bin/../lib/gcc/m68k-elf/4.2.1/m5206e/libgcc.a(_udivdi3.o)
 .debug_loc     0x0000000000018b66      0x734 /Applications/NetBurner/gcc-m68k/bin/../lib/gcc/m68k-elf/4.2.1/m5206e/libgcc.a(_umoddi3.o)
 .debug_loc     0x000000000001929a      0x56d /Applications/NetBurner/gcc-m68k/bin/../lib/gcc/m68k-elf/4.2.1/m5206e/libgcc.a(fpgnulib.o)
 .debug_loc     0x0000000000019807       0x20 /Applications/NetBurner/gcc-m68k/bin/../lib/gcc/m68k-elf/4.2.1/../../../../m68k-elf/lib/m5206e/libc.a(lib_a-cxa_atexit.o)
 .debug_loc     0x0000000000019827       0x20 /Applications/NetBurner/gcc-m68k/bin/../lib/gcc/m68k-elf/4.2.1/../../../../m68k-elf/lib/m5206e/libc.a(lib_a-errno.o)
 .debug_loc     0x0000000000019847       0x20 /Applications/NetBurner/gcc-m68k/bin/../lib/gcc/m68k-elf/4.2.1/../../../../m68k-elf/lib/m5206e/libc.a(lib_a-fiprintf.o)
 .debug_loc     0x0000000000019867       0x40 /Applications/NetBurner/gcc-m68k/bin/../lib/gcc/m68k-elf/4.2.1/../../../../m68k-elf/lib/m5206e/libc.a(lib_a-malloc.o)
 .debug_loc     0x00000000000198a7      0xc79 /Applications/NetBurner/gcc-m68k/bin/../lib/gcc/m68k-elf/4.2.1/../../../../m68k-elf/lib/m5206e/libc.a(lib_a-mallocr.o)
 .debug_loc     0x000000000001a520       0x53 /Applications/NetBurner/gcc-m68k/bin/../lib/gcc/m68k-elf/4.2.1/../../../../m68k-elf/lib/m5206e/libc.a(lib_a-puts.o)
 .debug_loc     0x000000000001a573       0x40 /Applications/NetBurner/gcc-m68k/bin/../lib/gcc/m68k-elf/4.2.1/../../../../m68k-elf/lib/m5206e/libc.a(lib_a-rand.o)
 .debug_loc     0x000000000001a5b3       0xa2 /Applications/NetBurner/gcc-m68k/bin/../lib/gcc/m68k-elf/4.2.1/../../../../m68k-elf/lib/m5206e/libc.a(lib_a-rget.o)
 .debug_loc     0x000000000001a655      0x127 /Applications/NetBurner/gcc-m68k/bin/../lib/gcc/m68k-elf/4.2.1/../../../../m68k-elf/lib/m5206e/libc.a(lib_a-setvbuf.o)
 .debug_loc     0x000000000001a77c       0x20 /Applications/NetBurner/gcc-m68k/bin/../lib/gcc/m68k-elf/4.2.1/../../../../m68k-elf/lib/m5206e/libc.a(lib_a-strlen.o)
 .debug_loc     0x000000000001a79c     0x1171 /Applications/NetBurner/gcc-m68k/bin/../lib/gcc/m68k-elf/4.2.1/../../../../m68k-elf/lib/m5206e/libc.a(lib_a-vfiprintf.o)
 .debug_loc     0x000000000001b90d      0x1cc /Applications/NetBurner/gcc-m68k/bin/../lib/gcc/m68k-elf/4.2.1/../../../../m68k-elf/lib/m5206e/libc.a(lib_a-wbuf.o)
 .debug_loc     0x000000000001bad9      0x10c /Applications/NetBurner/gcc-m68k/bin/../lib/gcc/m68k-elf/4.2.1/../../../../m68k-elf/lib/m5206e/libc.a(lib_a-wcrtomb.o)
 .debug_loc     0x000000000001bbe5      0x2dc /Applications/NetBurner/gcc-m68k/bin/../lib/gcc/m68k-elf/4.2.1/../../../../m68k-elf/lib/m5206e/libc.a(lib_a-wcsrtombs.o)
 .debug_loc     0x000000000001bec1      0x323 /Applications/NetBurner/gcc-m68k/bin/../lib/gcc/m68k-elf/4.2.1/../../../../m68k-elf/lib/m5206e/libc.a(lib_a-wctomb_r.o)
 .debug_loc     0x000000000001c1e4       0x79 /Applications/NetBurner/gcc-m68k/bin/../lib/gcc/m68k-elf/4.2.1/../../../../m68k-elf/lib/m5206e/libc.a(lib_a-wsetup.o)
 .debug_loc     0x000000000001c25d      0x13f /Applications/NetBurner/gcc-m68k/bin/../lib/gcc/m68k-elf/4.2.1/../../../../m68k-elf/lib/m5206e/libc.a(lib_a-__atexit.o)
 .debug_loc     0x000000000001c39c      0x189 /Applications/NetBurner/gcc-m68k/bin/../lib/gcc/m68k-elf/4.2.1/../../../../m68k-elf/lib/m5206e/libc.a(lib_a-fflush.o)
 .debug_loc     0x000000000001c525      0x251 /Applications/NetBurner/gcc-m68k/bin/../lib/gcc/m68k-elf/4.2.1/../../../../m68k-elf/lib/m5206e/libc.a(lib_a-findfp.o)
 .debug_loc     0x000000000001c776      0x5bf /Applications/NetBurner/gcc-m68k/bin/../lib/gcc/m68k-elf/4.2.1/../../../../m68k-elf/lib/m5206e/libc.a(lib_a-freer.o)
 .debug_loc     0x000000000001cd35      0x407 /Applications/NetBurner/gcc-m68k/bin/../lib/gcc/m68k-elf/4.2.1/../../../../m68k-elf/lib/m5206e/libc.a(lib_a-fvwrite.o)
 .debug_loc     0x000000000001d13c      0x1ea /Applications/NetBurner/gcc-m68k/bin/../lib/gcc/m68k-elf/4.2.1/../../../../m68k-elf/lib/m5206e/libc.a(lib_a-fwalk.o)
 .debug_loc     0x000000000001d326      0x124 /Applications/NetBurner/gcc-m68k/bin/../lib/gcc/m68k-elf/4.2.1/../../../../m68k-elf/lib/m5206e/libc.a(lib_a-locale.o)
 .debug_loc     0x000000000001d44a      0x120 /Applications/NetBurner/gcc-m68k/bin/../lib/gcc/m68k-elf/4.2.1/../../../../m68k-elf/lib/m5206e/libc.a(lib_a-makebuf.o)
 .debug_loc     0x000000000001d56a      0x1c5 /Applications/NetBurner/gcc-m68k/bin/../lib/gcc/m68k-elf/4.2.1/../../../../m68k-elf/lib/m5206e/libc.a(lib_a-memchr.o)
 .debug_loc     0x000000000001d72f      0x1b0 /Applications/NetBurner/gcc-m68k/bin/../lib/gcc/m68k-elf/4.2.1/../../../../m68k-elf/lib/m5206e/libc.a(lib_a-memmove.o)
 .debug_loc     0x000000000001d8df      0x9dc /Applications/NetBurner/gcc-m68k/bin/../lib/gcc/m68k-elf/4.2.1/../../../../m68k-elf/lib/m5206e/libc.a(lib_a-reallocr.o)
 .debug_loc     0x000000000001e2bb      0x109 /Applications/NetBurner/gcc-m68k/bin/../lib/gcc/m68k-elf/4.2.1/../../../../m68k-elf/lib/m5206e/libc.a(lib_a-refill.o)
 .debug_loc     0x000000000001e3c4      0x205 /Applications/NetBurner/gcc-m68k/bin/../lib/gcc/m68k-elf/4.2.1/../../../../m68k-elf/lib/m5206e/libc.a(lib_a-stdio.o)
 .debug_loc     0x000000000001e5c9       0xf6 /Applications/NetBurner/gcc-m68k/bin/../lib/gcc/m68k-elf/4.2.1/../../../../m68k-elf/lib/m5206e/libc.a(lib_a-strcmp.o)
 .debug_loc     0x000000000001e6bf       0x9e /Applications/NetBurner/gcc-m68k/bin/../lib/gcc/m68k-elf/4.2.1/../../../../m68k-elf/lib/m5206e/libc.a(lib_a-writer.o)
 .debug_loc     0x000000000001e75d       0x5e /Applications/NetBurner/gcc-m68k/bin/../lib/gcc/m68k-elf/4.2.1/../../../../m68k-elf/lib/m5206e/libc.a(lib_a-closer.o)
 .debug_loc     0x000000000001e7bb      0x103 /Applications/NetBurner/gcc-m68k/bin/../lib/gcc/m68k-elf/4.2.1/../../../../m68k-elf/lib/m5206e/libc.a(lib_a-fclose.o)
 .debug_loc     0x000000000001e8be       0x7e /Applications/NetBurner/gcc-m68k/bin/../lib/gcc/m68k-elf/4.2.1/../../../../m68k-elf/lib/m5206e/libc.a(lib_a-fstatr.o)
 .debug_loc     0x000000000001e93c       0x9e /Applications/NetBurner/gcc-m68k/bin/../lib/gcc/m68k-elf/4.2.1/../../../../m68k-elf/lib/m5206e/libc.a(lib_a-lseekr.o)
 .debug_loc     0x000000000001e9da       0x9e /Applications/NetBurner/gcc-m68k/bin/../lib/gcc/m68k-elf/4.2.1/../../../../m68k-elf/lib/m5206e/libc.a(lib_a-readr.o)
 .debug_loc     0x000000000001ea78       0x7c /Applications/NetBurner/gcc-m68k/bin/../lib/gcc/m68k-elf/4.2.1/m5206e/libgcc.a(_muldi3.o)

.debug_macinfo
 *(.debug_macinfo)

.debug_weaknames
 *(.debug_weaknames)

.debug_funcnames
 *(.debug_funcnames)

.debug_typenames
 *(.debug_typenames)

.debug_varnames
 *(.debug_varnames)
OUTPUT(./stepper_driver.elf elf32-m68k)

.comment        0x0000000000000000      0x642
 .comment       0x0000000000000000       0x12 /Applications/NetBurner/gcc-m68k/bin/../lib/gcc/m68k-elf/4.2.1/m5206e/crtbegin.o
 .comment       0x0000000000000012       0x12 ./main.o
 .comment       0x0000000000000024       0x12 ./stepper.o
 .comment       0x0000000000000036       0x12 /Users/dciliske/nndk/lib/MOD5441X.a(bsp.o)
 .comment       0x0000000000000048       0x12 /Users/dciliske/nndk/lib/MOD5441X.a(flash.o)
 .comment       0x000000000000005a       0x12 /Users/dciliske/nndk/lib/MOD5441X.a(pins.o)
 .comment       0x000000000000006c       0x12 /Users/dciliske/nndk/lib/NetBurner.a(ucos.o)
 .comment       0x000000000000007e       0x12 /Users/dciliske/nndk/lib/NetBurner.a(debugtrap.o)
 .comment       0x0000000000000090       0x12 /Users/dciliske/nndk/lib/NetBurner.a(ucosmain.o)
 .comment       0x00000000000000a2       0x12 /Users/dciliske/nndk/lib/NetBurner.a(fileio.o)
 .comment       0x00000000000000b4       0x12 /Users/dciliske/nndk/lib/NetBurner.a(main.o)
 .comment       0x00000000000000c6       0x12 /Users/dciliske/nndk/lib/NetBurner.a(tcp.o)
 .comment       0x00000000000000d8       0x12 /Users/dciliske/nndk/lib/NetBurner.a(iosys.o)
 .comment       0x00000000000000ea       0x12 /Users/dciliske/nndk/lib/NetBurner.a(netinterface.o)
 .comment       0x00000000000000fc       0x12 /Users/dciliske/nndk/lib/NetBurner.a(smarttrap.o)
 .comment       0x000000000000010e       0x12 /Users/dciliske/nndk/lib/NetBurner.a(device.o)
 .comment       0x0000000000000120       0x12 /Users/dciliske/nndk/lib/NetBurner.a(release_tag.o)
 .comment       0x0000000000000132       0x12 /Users/dciliske/nndk/lib/NetBurner.a(release_tagdata.o)
 .comment       0x0000000000000144       0x12 /Users/dciliske/nndk/lib/NetBurner.a(init.o)
 .comment       0x0000000000000156       0x12 /Users/dciliske/nndk/lib/NetBurner.a(nbiprintf.o)
 .comment       0x0000000000000168       0x12 /Users/dciliske/nndk/lib/NetBurner.a(ucosmcfc.o)
 .comment       0x000000000000017a       0x12 /Users/dciliske/nndk/lib/NetBurner.a(system.o)
 .comment       0x000000000000018c       0x12 /Users/dciliske/nndk/lib/NetBurner.a(utils.o)
 .comment       0x000000000000019e       0x12 /Users/dciliske/nndk/lib/NetBurner.a(ip.o)
 .comment       0x00000000000001b0       0x12 /Users/dciliske/nndk/lib/NetBurner.a(buffers.o)
 .comment       0x00000000000001c2       0x12 /Users/dciliske/nndk/lib/NetBurner.a(arp.o)
 .comment       0x00000000000001d4       0x12 /Users/dciliske/nndk/lib/NetBurner.a(udp.o)
 .comment       0x00000000000001e6       0x12 /Users/dciliske/nndk/lib/NetBurner.a(autoip.o)
 .comment       0x00000000000001f8       0x12 /Users/dciliske/nndk/lib/NetBurner.a(dhcpc.o)
 .comment       0x000000000000020a       0x12 /Users/dciliske/nndk/lib/NetBurner.a(defappname.o)
 .comment       0x000000000000021c       0x12 /Users/dciliske/nndk/lib/NetBurner.a(taskmon.o)
 .comment       0x000000000000022e       0x12 /Users/dciliske/nndk/lib/NetBurner.a(autoupdate.o)
 .comment       0x0000000000000240       0x12 /Users/dciliske/nndk/lib/NetBurner.a(nbsiprintf.o)
 .comment       0x0000000000000252       0x12 /Users/dciliske/nndk/lib/NetBurner.a(new_ops.o)
 .comment       0x0000000000000264       0x12 /Users/dciliske/nndk/lib/MOD5441X.a(localio.o)
 .comment       0x0000000000000276       0x12 /Users/dciliske/nndk/lib/MOD5441X.a(serial.o)
 .comment       0x0000000000000288       0x12 /Users/dciliske/nndk/lib/MOD5441X.a(ethernet.o)
 .comment       0x000000000000029a       0x12 /Users/dciliske/nndk/lib/MOD5441X.a(etherprint.o)
 .comment       0x00000000000002ac       0x12 /Users/dciliske/nndk/lib/MOD5441X.a(emulticast.o)
 .comment       0x00000000000002be       0x12 /Users/dciliske/nndk/lib/MOD5441X.a(ether2nd.o)
 .comment       0x00000000000002d0       0x12 /Users/dciliske/nndk/lib/MOD5441X.a(etherswitch.o)
 .comment       0x00000000000002e2       0x12 /Users/dciliske/nndk/lib/MOD5441X.a(weak_autoenet_var.o)
 .comment       0x00000000000002f4       0x12 /Users/dciliske/nndk/lib/NetBurner.a(extraio.o)
 .comment       0x0000000000000306       0x12 /Users/dciliske/nndk/lib/NetBurner.a(netrx.o)
 .comment       0x0000000000000318       0x12 /Users/dciliske/nndk/lib/NetBurner.a(multiconfig.o)
 .comment       0x000000000000032a       0x12 /Applications/NetBurner/gcc-m68k/bin/../lib/gcc/m68k-elf/4.2.1/m5206e/libgcc.a(_fixunsdfsi.o)
 .comment       0x000000000000033c       0x12 /Applications/NetBurner/gcc-m68k/bin/../lib/gcc/m68k-elf/4.2.1/m5206e/libgcc.a(_udivdi3.o)
 .comment       0x000000000000034e       0x12 /Applications/NetBurner/gcc-m68k/bin/../lib/gcc/m68k-elf/4.2.1/m5206e/libgcc.a(_umoddi3.o)
 .comment       0x0000000000000360       0x12 /Applications/NetBurner/gcc-m68k/bin/../lib/gcc/m68k-elf/4.2.1/m5206e/libgcc.a(fpgnulib.o)
 .comment       0x0000000000000372       0x12 /Applications/NetBurner/gcc-m68k/bin/../lib/gcc/m68k-elf/4.2.1/m5206e/libgcc.a(_clz.o)
 .comment       0x0000000000000384       0x12 /Applications/NetBurner/gcc-m68k/bin/../lib/gcc/m68k-elf/4.2.1/../../../../m68k-elf/lib/m5206e/libc.a(lib_a-cxa_atexit.o)
 .comment       0x0000000000000396       0x12 /Applications/NetBurner/gcc-m68k/bin/../lib/gcc/m68k-elf/4.2.1/../../../../m68k-elf/lib/m5206e/libc.a(lib_a-errno.o)
 .comment       0x00000000000003a8       0x12 /Applications/NetBurner/gcc-m68k/bin/../lib/gcc/m68k-elf/4.2.1/../../../../m68k-elf/lib/m5206e/libc.a(lib_a-fiprintf.o)
 .comment       0x00000000000003ba       0x12 /Applications/NetBurner/gcc-m68k/bin/../lib/gcc/m68k-elf/4.2.1/../../../../m68k-elf/lib/m5206e/libc.a(lib_a-impure.o)
 .comment       0x00000000000003cc       0x12 /Applications/NetBurner/gcc-m68k/bin/../lib/gcc/m68k-elf/4.2.1/../../../../m68k-elf/lib/m5206e/libc.a(lib_a-malloc.o)
 .comment       0x00000000000003de       0x12 /Applications/NetBurner/gcc-m68k/bin/../lib/gcc/m68k-elf/4.2.1/../../../../m68k-elf/lib/m5206e/libc.a(lib_a-mallocr.o)
 .comment       0x00000000000003f0       0x12 /Applications/NetBurner/gcc-m68k/bin/../lib/gcc/m68k-elf/4.2.1/../../../../m68k-elf/lib/m5206e/libc.a(lib_a-puts.o)
 .comment       0x0000000000000402       0x12 /Applications/NetBurner/gcc-m68k/bin/../lib/gcc/m68k-elf/4.2.1/../../../../m68k-elf/lib/m5206e/libc.a(lib_a-rand.o)
 .comment       0x0000000000000414       0x12 /Applications/NetBurner/gcc-m68k/bin/../lib/gcc/m68k-elf/4.2.1/../../../../m68k-elf/lib/m5206e/libc.a(lib_a-rget.o)
 .comment       0x0000000000000426       0x12 /Applications/NetBurner/gcc-m68k/bin/../lib/gcc/m68k-elf/4.2.1/../../../../m68k-elf/lib/m5206e/libc.a(lib_a-setvbuf.o)
 .comment       0x0000000000000438       0x12 /Applications/NetBurner/gcc-m68k/bin/../lib/gcc/m68k-elf/4.2.1/../../../../m68k-elf/lib/m5206e/libc.a(lib_a-strlen.o)
 .comment       0x000000000000044a       0x12 /Applications/NetBurner/gcc-m68k/bin/../lib/gcc/m68k-elf/4.2.1/../../../../m68k-elf/lib/m5206e/libc.a(lib_a-vfiprintf.o)
 .comment       0x000000000000045c       0x12 /Applications/NetBurner/gcc-m68k/bin/../lib/gcc/m68k-elf/4.2.1/../../../../m68k-elf/lib/m5206e/libc.a(lib_a-wbuf.o)
 .comment       0x000000000000046e       0x12 /Applications/NetBurner/gcc-m68k/bin/../lib/gcc/m68k-elf/4.2.1/../../../../m68k-elf/lib/m5206e/libc.a(lib_a-wcrtomb.o)
 .comment       0x0000000000000480       0x12 /Applications/NetBurner/gcc-m68k/bin/../lib/gcc/m68k-elf/4.2.1/../../../../m68k-elf/lib/m5206e/libc.a(lib_a-wcsrtombs.o)
 .comment       0x0000000000000492       0x12 /Applications/NetBurner/gcc-m68k/bin/../lib/gcc/m68k-elf/4.2.1/../../../../m68k-elf/lib/m5206e/libc.a(lib_a-wctomb_r.o)
 .comment       0x00000000000004a4       0x12 /Applications/NetBurner/gcc-m68k/bin/../lib/gcc/m68k-elf/4.2.1/../../../../m68k-elf/lib/m5206e/libc.a(lib_a-wsetup.o)
 .comment       0x00000000000004b6       0x12 /Applications/NetBurner/gcc-m68k/bin/../lib/gcc/m68k-elf/4.2.1/../../../../m68k-elf/lib/m5206e/libc.a(lib_a-__atexit.o)
 .comment       0x00000000000004c8       0x12 /Applications/NetBurner/gcc-m68k/bin/../lib/gcc/m68k-elf/4.2.1/../../../../m68k-elf/lib/m5206e/libc.a(lib_a-fflush.o)
 .comment       0x00000000000004da       0x12 /Applications/NetBurner/gcc-m68k/bin/../lib/gcc/m68k-elf/4.2.1/../../../../m68k-elf/lib/m5206e/libc.a(lib_a-findfp.o)
 .comment       0x00000000000004ec       0x12 /Applications/NetBurner/gcc-m68k/bin/../lib/gcc/m68k-elf/4.2.1/../../../../m68k-elf/lib/m5206e/libc.a(lib_a-freer.o)
 .comment       0x00000000000004fe       0x12 /Applications/NetBurner/gcc-m68k/bin/../lib/gcc/m68k-elf/4.2.1/../../../../m68k-elf/lib/m5206e/libc.a(lib_a-fvwrite.o)
 .comment       0x0000000000000510       0x12 /Applications/NetBurner/gcc-m68k/bin/../lib/gcc/m68k-elf/4.2.1/../../../../m68k-elf/lib/m5206e/libc.a(lib_a-fwalk.o)
 .comment       0x0000000000000522       0x12 /Applications/NetBurner/gcc-m68k/bin/../lib/gcc/m68k-elf/4.2.1/../../../../m68k-elf/lib/m5206e/libc.a(lib_a-locale.o)
 .comment       0x0000000000000534       0x12 /Applications/NetBurner/gcc-m68k/bin/../lib/gcc/m68k-elf/4.2.1/../../../../m68k-elf/lib/m5206e/libc.a(lib_a-makebuf.o)
 .comment       0x0000000000000546       0x12 /Applications/NetBurner/gcc-m68k/bin/../lib/gcc/m68k-elf/4.2.1/../../../../m68k-elf/lib/m5206e/libc.a(lib_a-memchr.o)
 .comment       0x0000000000000558       0x12 /Applications/NetBurner/gcc-m68k/bin/../lib/gcc/m68k-elf/4.2.1/../../../../m68k-elf/lib/m5206e/libc.a(lib_a-memmove.o)
 .comment       0x000000000000056a       0x12 /Applications/NetBurner/gcc-m68k/bin/../lib/gcc/m68k-elf/4.2.1/../../../../m68k-elf/lib/m5206e/libc.a(lib_a-reallocr.o)
 .comment       0x000000000000057c       0x12 /Applications/NetBurner/gcc-m68k/bin/../lib/gcc/m68k-elf/4.2.1/../../../../m68k-elf/lib/m5206e/libc.a(lib_a-refill.o)
 .comment       0x000000000000058e       0x12 /Applications/NetBurner/gcc-m68k/bin/../lib/gcc/m68k-elf/4.2.1/../../../../m68k-elf/lib/m5206e/libc.a(lib_a-stdio.o)
 .comment       0x00000000000005a0       0x12 /Applications/NetBurner/gcc-m68k/bin/../lib/gcc/m68k-elf/4.2.1/../../../../m68k-elf/lib/m5206e/libc.a(lib_a-strcmp.o)
 .comment       0x00000000000005b2       0x12 /Applications/NetBurner/gcc-m68k/bin/../lib/gcc/m68k-elf/4.2.1/../../../../m68k-elf/lib/m5206e/libc.a(lib_a-writer.o)
 .comment       0x00000000000005c4       0x12 /Applications/NetBurner/gcc-m68k/bin/../lib/gcc/m68k-elf/4.2.1/../../../../m68k-elf/lib/m5206e/libc.a(lib_a-closer.o)
 .comment       0x00000000000005d6       0x12 /Applications/NetBurner/gcc-m68k/bin/../lib/gcc/m68k-elf/4.2.1/../../../../m68k-elf/lib/m5206e/libc.a(lib_a-fclose.o)
 .comment       0x00000000000005e8       0x12 /Applications/NetBurner/gcc-m68k/bin/../lib/gcc/m68k-elf/4.2.1/../../../../m68k-elf/lib/m5206e/libc.a(lib_a-fstatr.o)
 .comment       0x00000000000005fa       0x12 /Applications/NetBurner/gcc-m68k/bin/../lib/gcc/m68k-elf/4.2.1/../../../../m68k-elf/lib/m5206e/libc.a(lib_a-lseekr.o)
 .comment       0x000000000000060c       0x12 /Applications/NetBurner/gcc-m68k/bin/../lib/gcc/m68k-elf/4.2.1/../../../../m68k-elf/lib/m5206e/libc.a(lib_a-readr.o)
 .comment       0x000000000000061e       0x12 /Applications/NetBurner/gcc-m68k/bin/../lib/gcc/m68k-elf/4.2.1/m5206e/libgcc.a(_muldi3.o)
 .comment       0x0000000000000630       0x12 /Applications/NetBurner/gcc-m68k/bin/../lib/gcc/m68k-elf/4.2.1/m5206e/crtend.o

.debug_ranges   0x0000000000000000     0x4310
 .debug_ranges  0x0000000000000000       0x18 ./main.o
 .debug_ranges  0x0000000000000018       0x98 ./stepper.o
 .debug_ranges  0x00000000000000b0       0x30 /Users/dciliske/nndk/lib/MOD5441X.a(flash.o)
 .debug_ranges  0x00000000000000e0       0x38 /Users/dciliske/nndk/lib/MOD5441X.a(pins.o)
 .debug_ranges  0x0000000000000118       0x70 /Users/dciliske/nndk/lib/NetBurner.a(ucos.o)
 .debug_ranges  0x0000000000000188       0x40 /Users/dciliske/nndk/lib/NetBurner.a(ucosmain.o)
 .debug_ranges  0x00000000000001c8       0x40 /Users/dciliske/nndk/lib/NetBurner.a(fileio.o)
 .debug_ranges  0x0000000000000208     0x1160 /Users/dciliske/nndk/lib/NetBurner.a(tcp.o)
 .debug_ranges  0x0000000000001368       0x30 /Users/dciliske/nndk/lib/NetBurner.a(iosys.o)
 .debug_ranges  0x0000000000001398       0x88 /Users/dciliske/nndk/lib/NetBurner.a(netinterface.o)
 .debug_ranges  0x0000000000001420       0xb8 /Users/dciliske/nndk/lib/NetBurner.a(smarttrap.o)
 .debug_ranges  0x00000000000014d8       0x18 /Users/dciliske/nndk/lib/NetBurner.a(release_tag.o)
 .debug_ranges  0x00000000000014f0      0x210 /Users/dciliske/nndk/lib/NetBurner.a(nbiprintf.o)
 .debug_ranges  0x0000000000001700      0x180 /Users/dciliske/nndk/lib/NetBurner.a(utils.o)
 .debug_ranges  0x0000000000001880      0x258 /Users/dciliske/nndk/lib/NetBurner.a(ip.o)
 .debug_ranges  0x0000000000001ad8      0x278 /Users/dciliske/nndk/lib/NetBurner.a(buffers.o)
 .debug_ranges  0x0000000000001d50      0x358 /Users/dciliske/nndk/lib/NetBurner.a(arp.o)
 .debug_ranges  0x00000000000020a8      0x400 /Users/dciliske/nndk/lib/NetBurner.a(udp.o)
 .debug_ranges  0x00000000000024a8       0xc0 /Users/dciliske/nndk/lib/NetBurner.a(autoip.o)
 .debug_ranges  0x0000000000002568      0xe98 /Users/dciliske/nndk/lib/NetBurner.a(dhcpc.o)
 .debug_ranges  0x0000000000003400       0x50 /Users/dciliske/nndk/lib/NetBurner.a(taskmon.o)
 .debug_ranges  0x0000000000003450       0x80 /Users/dciliske/nndk/lib/NetBurner.a(autoupdate.o)
 .debug_ranges  0x00000000000034d0      0x270 /Users/dciliske/nndk/lib/MOD5441X.a(serial.o)
 .debug_ranges  0x0000000000003740      0x288 /Users/dciliske/nndk/lib/MOD5441X.a(ethernet.o)
 .debug_ranges  0x00000000000039c8       0x40 /Users/dciliske/nndk/lib/MOD5441X.a(etherprint.o)
 .debug_ranges  0x0000000000003a08       0x80 /Users/dciliske/nndk/lib/MOD5441X.a(emulticast.o)
 .debug_ranges  0x0000000000003a88       0x90 /Users/dciliske/nndk/lib/MOD5441X.a(etherswitch.o)
 .debug_ranges  0x0000000000003b18       0x38 /Users/dciliske/nndk/lib/NetBurner.a(extraio.o)
 .debug_ranges  0x0000000000003b50       0x48 /Users/dciliske/nndk/lib/NetBurner.a(netrx.o)
 .debug_ranges  0x0000000000003b98       0x18 /Users/dciliske/nndk/lib/NetBurner.a(multiconfig.o)
 .debug_ranges  0x0000000000003bb0      0x1c8 /Applications/NetBurner/gcc-m68k/bin/../lib/gcc/m68k-elf/4.2.1/m5206e/libgcc.a(_udivdi3.o)
 .debug_ranges  0x0000000000003d78      0x198 /Applications/NetBurner/gcc-m68k/bin/../lib/gcc/m68k-elf/4.2.1/m5206e/libgcc.a(_umoddi3.o)
 .debug_ranges  0x0000000000003f10       0x20 /Applications/NetBurner/gcc-m68k/bin/../lib/gcc/m68k-elf/4.2.1/m5206e/libgcc.a(fpgnulib.o)
 .debug_ranges  0x0000000000003f30       0x80 /Applications/NetBurner/gcc-m68k/bin/../lib/gcc/m68k-elf/4.2.1/../../../../m68k-elf/lib/m5206e/libc.a(lib_a-mallocr.o)
 .debug_ranges  0x0000000000003fb0       0x90 /Applications/NetBurner/gcc-m68k/bin/../lib/gcc/m68k-elf/4.2.1/../../../../m68k-elf/lib/m5206e/libc.a(lib_a-vfiprintf.o)
 .debug_ranges  0x0000000000004040       0x28 /Applications/NetBurner/gcc-m68k/bin/../lib/gcc/m68k-elf/4.2.1/../../../../m68k-elf/lib/m5206e/libc.a(lib_a-wcsrtombs.o)
 .debug_ranges  0x0000000000004068       0x68 /Applications/NetBurner/gcc-m68k/bin/../lib/gcc/m68k-elf/4.2.1/../../../../m68k-elf/lib/m5206e/libc.a(lib_a-wctomb_r.o)
 .debug_ranges  0x00000000000040d0       0x50 /Applications/NetBurner/gcc-m68k/bin/../lib/gcc/m68k-elf/4.2.1/../../../../m68k-elf/lib/m5206e/libc.a(lib_a-fflush.o)
 .debug_ranges  0x0000000000004120       0x28 /Applications/NetBurner/gcc-m68k/bin/../lib/gcc/m68k-elf/4.2.1/../../../../m68k-elf/lib/m5206e/libc.a(lib_a-fvwrite.o)
 .debug_ranges  0x0000000000004148       0x90 /Applications/NetBurner/gcc-m68k/bin/../lib/gcc/m68k-elf/4.2.1/../../../../m68k-elf/lib/m5206e/libc.a(lib_a-fwalk.o)
 .debug_ranges  0x00000000000041d8      0x118 /Applications/NetBurner/gcc-m68k/bin/../lib/gcc/m68k-elf/4.2.1/../../../../m68k-elf/lib/m5206e/libc.a(lib_a-reallocr.o)
 .debug_ranges  0x00000000000042f0       0x20 /Applications/NetBurner/gcc-m68k/bin/../lib/gcc/m68k-elf/4.2.1/m5206e/libgcc.a(_muldi3.o)
